(lp0
(dp1
S'count'
p2
I695
sS'values'
p3
(lp4
(dp5
S'value'
p6
I46
sS'key'
p7
S'200'
p8
sa(dp9
g6
I18
sg7
S'302'
p10
sa(dp11
g6
I22
sg7
S'304'
p12
sa(dp13
g6
I538
sg7
S'404'
p14
sa(dp15
g6
I1
sg7
S'403'
p16
sa(dp17
g6
I1
sg7
S'499'
p18
sa(dp19
g6
I44
sg7
S'400'
p20
sa(dp21
g6
I24
sg7
S'502'
p22
sa(dp23
g6
I1
sg7
S'500'
p24
sasg7
S'status'
p25
sa(dp26
g2
I616
sg3
(lp27
(dp28
g6
I11
sg7
S'http://www.coolshine.net'
p29
sa(dp30
g6
I16
sg7
S'http://localhost'
p31
sa(dp32
g6
I9
sg7
S'http://127.0.0.1'
p33
sa(dp34
g6
I8
sg7
S'http://wanghe.coolshine.net'
p35
sa(dp36
g6
I572
sg7
S'http://localhost:8080'
p37
sasg7
S'domain'
p38
sa(dp39
g2
I695
sg3
(lp40
(dp41
g6
I695
sg7
S'-'
p42
sasg7
S'ident'
p43
sa(dp44
g2
I695
sg3
(lp45
(dp46
g6
I695
sg7
S'access_common'
p47
sasg7
S'sourcetype'
p48
sa(dp49
g2
I695
sg3
(lp50
(dp51
g6
I11
sg7
S'http://www.coolshine.net/'
p52
sa(dp53
g6
I7
sg7
S'http://localhost/'
p54
sa(dp55
g6
I79
sg7
g42
sa(dp56
g6
I6
sg7
S'http://127.0.0.1/'
p57
sa(dp58
g6
I544
sg7
S'http://localhost:8080/'
p59
sa(dp60
g6
I8
sg7
S'http://wanghe.coolshine.net/'
p61
sa(dp62
g6
I28
sg7
S'http://localhost:8080/system/roles'
p63
sa(dp64
g6
I3
sg7
S'http://127.0.0.1/auth/login/'
p65
sa(dp66
g6
I1
sg7
S'http://localhost/ab/'
p67
sa(dp68
g6
I8
sg7
S'http://localhost/ab/events'
p69
sasg7
S'referer'
p70
sa(dp71
g2
I695
sg3
(lp72
(dp73
g6
I1
sg7
S'1296257'
p74
sa(dp75
g6
I1
sg7
S'10299'
p76
sa(dp77
g6
I1
sg7
S'10298'
p78
sa(dp79
g6
I1
sg7
S'210'
p80
sa(dp81
g6
I1
sg7
S'762'
p82
sa(dp83
g6
I1
sg7
S'10305'
p84
sa(dp85
g6
I538
sg7
S'570'
p86
sa(dp87
g6
I2
sg7
S'190059'
p88
sa(dp89
g6
I24
sg7
S'574'
p90
sa(dp91
g6
I1
sg7
S'395'
p92
sa(dp93
g6
I1
sg7
S'86'
p94
sa(dp95
g6
I2
sg7
S'22660'
p96
sa(dp97
g6
I1
sg7
S'594'
p98
sa(dp99
g6
I5
sg7
S'10064'
p100
sa(dp101
g6
I4
sg7
S'10183'
p102
sa(dp103
g6
I1
sg7
S'5538638'
p104
sa(dp105
g6
I1
sg7
S'484349'
p106
sa(dp107
g6
I23
sg7
S'0'
p108
sa(dp109
g6
I18
sg7
S'5'
p110
sa(dp111
g6
I1
sg7
S'236178'
p112
sa(dp113
g6
I3
sg7
S'425'
p114
sa(dp115
g6
I3
sg7
S'10071'
p116
sa(dp117
g6
I1
sg7
S'202'
p118
sa(dp119
g6
I1
sg7
S'22432'
p120
sa(dp121
g6
I1
sg7
S'301'
p122
sa(dp123
g6
I1
sg7
S'6997'
p124
sa(dp125
g6
I4
sg7
S'10176'
p126
sa(dp127
g6
I1
sg7
S'3072'
p128
sa(dp129
g6
I1
sg7
S'95'
p130
sa(dp131
g6
I1
sg7
S'1168359'
p132
sa(dp133
g6
I2
sg7
S'12'
p134
sa(dp135
g6
I2
sg7
S'1558'
p136
sa(dp137
g6
I44
sg7
S'37'
p138
sa(dp139
g6
I1
sg7
S'75'
p140
sa(dp141
g6
I1
sg7
S'1530'
p142
sasg7
S'bytes'
p143
sa(dp144
g2
I695
sg3
(lp145
(dp146
g6
I1
sg7
S'/sockjs-node/info?t=1450441427898'
p147
sa(dp148
g6
I1
sg7
S'/sockjs-node/info?t=1450448676894'
p149
sa(dp150
g6
I1
sg7
S'/sockjs-node/info?t=1450440610306'
p151
sa(dp152
g6
I1
sg7
S'/sockjs-node/info?t=1450448190027'
p153
sa(dp154
g6
I1
sg7
S'/sockjs-node/info?t=1450447549781'
p155
sa(dp156
g6
I1
sg7
S'/sockjs-node/info?t=1450441381895'
p157
sa(dp158
g6
I1
sg7
S'/sockjs-node/info?t=1450446687844'
p159
sa(dp160
g6
I1
sg7
S'/sockjs-node/info?t=1450448470042'
p161
sa(dp162
g6
I1
sg7
S'/sockjs-node/info?t=1450447311626'
p163
sa(dp164
g6
I1
sg7
S'/sockjs-node/info?t=1450448873901'
p165
sa(dp166
g6
I1
sg7
S'/sockjs-node/info?t=1450441644882'
p167
sa(dp168
g6
I1
sg7
S'/sockjs-node/info?t=1450448489981'
p169
sa(dp170
g6
I1
sg7
S'/sockjs-node/info?t=1450449323610'
p171
sa(dp172
g6
I1
sg7
S'/sockjs-node/info?t=1450446891142'
p173
sa(dp174
g6
I1
sg7
S'/sockjs-node/info?t=1450450034509'
p175
sa(dp176
g6
I1
sg7
S'/sockjs-node/info?t=1450504329902'
p177
sa(dp178
g6
I1
sg7
S'/sockjs-node/info?t=1450448453065'
p179
sa(dp180
g6
I1
sg7
S'/sockjs-node/info?t=1450447005647'
p181
sa(dp182
g6
I1
sg7
S'/sockjs-node/info?t=1450446615749'
p183
sa(dp184
g6
I1
sg7
S'/sockjs-node/info?t=1450504311954'
p185
sa(dp186
g6
I1
sg7
S'/sockjs-node/info?t=1450447936333'
p187
sa(dp188
g6
I1
sg7
S'/sockjs-node/info?t=1450504371976'
p189
sa(dp190
g6
I1
sg7
S'/sockjs-node/info?t=1450447131179'
p191
sa(dp192
g6
I1
sg7
S'/sockjs-node/info?t=1450446810637'
p193
sa(dp194
g6
I1
sg7
S'/OpenSans-Bold-webfont.woff'
p195
sa(dp196
g6
I1
sg7
S'/sockjs-node/info?t=1450447023642'
p197
sa(dp198
g6
I1
sg7
S'/sockjs-node/info?t=1450446885090'
p199
sa(dp200
g6
I1
sg7
S'/sockjs-node/info?t=1450440556038'
p201
sa(dp202
g6
I1
sg7
S'/sockjs-node/info?t=1450441516078'
p203
sa(dp204
g6
I1
sg7
S'/sockjs-node/info?t=1450449708906'
p205
sa(dp206
g6
I1
sg7
S'/sockjs-node/info?t=1450447060639'
p207
sa(dp208
g6
I1
sg7
S'/sockjs-node/info?t=1450449418513'
p209
sa(dp210
g6
I1
sg7
S'/sockjs-node/info?t=1450441470885'
p211
sa(dp212
g6
I1
sg7
S'/sockjs-node/info?t=1450446853656'
p213
sa(dp214
g6
I1
sg7
S'/sockjs-node/info?t=1450447203635'
p215
sa(dp216
g6
I1
sg7
S'/sockjs-node/info?t=1450440580748'
p217
sa(dp218
g6
I1
sg7
S'/sockjs-node/info?t=1450448765056'
p219
sa(dp220
g6
I1
sg7
S'/sockjs-node/info?t=1450448970880'
p221
sa(dp222
g6
I1
sg7
S'/sockjs-node/info?t=1450449960829'
p223
sa(dp224
g6
I1
sg7
S'/sockjs-node/info?t=1450447148990'
p225
sa(dp226
g6
I1
sg7
S'/sockjs-node/info?t=1450448519998'
p227
sa(dp228
g6
I1
sg7
S'/sockjs-node/info?t=1450447764939'
p229
sa(dp230
g6
I1
sg7
S'/sockjs-node/info?t=1450447112665'
p231
sa(dp232
g6
I1
sg7
S'/sockjs-node/info?t=1450448352910'
p233
sa(dp234
g6
I1
sg7
S'/sockjs-node/info?t=1450447163995'
p235
sa(dp236
g6
I1
sg7
S'/sockjs-node/info?t=1450447261634'
p237
sa(dp238
g6
I1
sg7
S'/sockjs-node/info?t=1450449583965'
p239
sa(dp240
g6
I1
sg7
S'/sockjs-node/info?t=1450447053646'
p241
sa(dp242
g6
I1
sg7
S'/sockjs-node/info?t=1450448125836'
p243
sa(dp244
g6
I1
sg7
S'/sockjs-node/info?t=1450448198381'
p245
sa(dp246
g6
I1
sg7
S'/sockjs-node/info?t=1450448316937'
p247
sa(dp248
g6
I1
sg7
S'/sockjs-node/info?t=1450447041637'
p249
sa(dp250
g6
I1
sg7
S'/sockjs-node/info?t=1450447537939'
p251
sa(dp252
g6
I1
sg7
S'/sockjs-node/info?t=1450440628293'
p253
sa(dp254
g6
I1
sg7
S'/sockjs-node/info?t=1450447496868'
p255
sa(dp256
g6
I3
sg7
S'/config.js'
p257
sa(dp258
g6
I1
sg7
S'/sockjs-node/info?t=1450448435855'
p259
sa(dp260
g6
I1
sg7
S'/sockjs-node/info?t=1450441325152'
p261
sa(dp262
g6
I1
sg7
S'/sockjs-node/info?t=1450446829691'
p263
sa(dp264
g6
I1
sg7
S'/sockjs-node/info?t=1450448364913'
p265
sa(dp266
g6
I1
sg7
S'/sockjs-node/info?t=1450449670786'
p267
sa(dp268
g6
I1
sg7
S'/sockjs-node/info?t=1450448376919'
p269
sa(dp270
g6
I1
sg7
S'/sockjs-node/info?t=1450446603669'
p271
sa(dp272
g6
I1
sg7
S'/sockjs-node/info?t=1450449174870'
p273
sa(dp274
g6
I1
sg7
S'/sockjs-node/info?t=1450447317731'
p275
sa(dp276
g6
I1
sg7
S'/sockjs-node/info?t=1450447017649'
p277
sa(dp278
g6
I1
sg7
S'/sockjs-node/info?t=1450447431651'
p279
sa(dp280
g6
I1
sg7
S'/sockjs-node/info?t=1450448615860'
p281
sa(dp282
g6
I1
sg7
S'/sockjs-node/info?t=1450447389253'
p283
sa(dp284
g6
I1
sg7
S'/sockjs-node/info?t=1450446519665'
p285
sa(dp286
g6
I1
sg7
S'/sockjs-node/info?t=1450448080946'
p287
sa(dp288
g6
I1
sg7
S'/sockjs-node/info?t=1450447254629'
p289
sa(dp290
g6
I1
sg7
S'/sockjs-node/info?t=1450441421898'
p291
sa(dp292
g6
I1
sg7
S'/sockjs-node/info?t=1450447703051'
p293
sa(dp294
g6
I1
sg7
S'/sockjs-node/info?t=1450446681656'
p295
sa(dp296
g6
I1
sg7
S'/sockjs-node/info?t=1450447401419'
p297
sa(dp298
g6
I1
sg7
S'/sockjs-node/info?t=1450446424672'
p299
sa(dp300
g6
I1
sg7
S'/sockjs-node/info?t=1450504323953'
p301
sa(dp302
g6
I1
sg7
S'/sockjs-node/info?t=1450441337065'
p303
sa(dp304
g6
I1
sg7
S'/sockjs-node/info?t=1450447728628'
p305
sa(dp306
g6
I1
sg7
S'/sockjs-node/info?t=1450441440069'
p307
sa(dp308
g6
I1
sg7
S'/sockjs-node/info?t=1450447880611'
p309
sa(dp310
g6
I1
sg7
S'/sockjs-node/info?t=1450440537978'
p311
sa(dp312
g6
I1
sg7
S'/sockjs-node/info?t=1450440585934'
p313
sa(dp314
g6
I3
sg7
S'/1.LoggedInPage.c62633ed2706bc89c199.js'
p315
sa(dp316
g6
I1
sg7
S'/sockjs-node/info?t=1450449450876'
p317
sa(dp318
g6
I1
sg7
S'/sockjs-node/info?t=1450441731692'
p319
sa(dp320
g6
I1
sg7
S'/sockjs-node/info?t=1450449353968'
p321
sa(dp322
g6
I3
sg7
S'/app.c62633ed2706bc89c199.js'
p323
sa(dp324
g6
I1
sg7
S'/sockjs-node/info?t=1450441690450'
p325
sa(dp326
g6
I1
sg7
S'/sockjs-node/info?t=1450449125513'
p327
sa(dp328
g6
I1
sg7
S'/sockjs-node/info?t=1450504347904'
p329
sa(dp330
g6
I1
sg7
S'/sockjs-node/info?t=1450447979075'
p331
sa(dp332
g6
I1
sg7
S'/sockjs-node/info?t=1450446705649'
p333
sa(dp334
g6
I1
sg7
S'/sockjs-node/info?t=1450446927011'
p335
sa(dp336
g6
I1
sg7
S'/api/0/organizations/ab/stats/?since=1455778342.679&stat=received&group=project'
p337
sa(dp338
g6
I1
sg7
S'/sockjs-node/info?t=1450448267808'
p339
sa(dp340
g6
I1
sg7
S'/sockjs-node/info?t=1450446909302'
p341
sa(dp342
g6
I1
sg7
S'/sockjs-node/info?t=1450447407478'
p343
sa(dp344
g6
I1
sg7
S'/sockjs-node/info?t=1450440640062'
p345
sa(dp346
g6
I1
sg7
S'/sockjs-node/info?t=1450441460891'
p347
sa(dp348
g6
I1
sg7
S'/sockjs-node/info?t=1450446933509'
p349
sa(dp350
g6
I1
sg7
S'/sockjs-node/info?t=1450446999647'
p351
sa(dp352
g6
I1
sg7
S'/sockjs-node/info?t=1450447903952'
p353
sa(dp354
g6
I1
sg7
S'/sockjs-node/info?t=1450504742899'
p355
sa(dp356
g6
I1
sg7
S'/api/0/organizations/ab/stats/?since=1455778342.642&stat=rejected'
p357
sa(dp358
g6
I1
sg7
S'/sockjs-node/info?t=1450446961826'
p359
sa(dp360
g6
I1
sg7
S'/sockjs-node/info?t=1450447118960'
p361
sa(dp362
g6
I1
sg7
S'/sockjs-node/info?t=1450446741641'
p363
sa(dp364
g6
I1
sg7
S'/sockjs-node/info?t=1450446675693'
p365
sa(dp366
g6
I1
sg7
S'/sockjs-node/info?t=1450504497897'
p367
sa(dp368
g6
I1
sg7
S'/sockjs-node/info?t=1450448556579'
p369
sa(dp370
g6
I1
sg7
S'/sockjs-node/info?t=1450449065512'
p371
sa(dp372
g6
I1
sg7
S'/sockjs-node/info?t=1450440512142'
p373
sa(dp374
g6
I1
sg7
S'/sockjs-node/info?t=1450446938744'
p375
sa(dp376
g6
I1
sg7
S'/api/0/organizations/ab/'
p377
sa(dp378
g6
I1
sg7
S'/sockjs-node/info?t=1450504725895'
p379
sa(dp380
g6
I1
sg7
S'/sockjs-node/info?t=1450449212736'
p381
sa(dp382
g6
I1
sg7
S'/sockjs-node/info?t=1450504341908'
p383
sa(dp384
g6
I1
sg7
S'/sockjs-node/info?t=1450446531671'
p385
sa(dp386
g6
I1
sg7
S'/sockjs-node/info?t=1450448730600'
p387
sa(dp388
g6
I1
sg7
S'/sockjs-node/info?t=1450447100913'
p389
sa(dp390
g6
I1
sg7
S'/sockjs-node/info?t=1450440591953'
p391
sa(dp392
g6
I1
sg7
S'/sockjs-node/info?t=1450446410849'
p393
sa(dp394
g6
I1
sg7
S'/sockjs-node/info?t=1450449246872'
p395
sa(dp396
g6
I1
sg7
S'/sockjs-node/info?t=1450448580003'
p397
sa(dp398
g6
I1
sg7
S'/sockjs-node/info?t=1450448808875'
p399
sa(dp400
g6
I1
sg7
S'/sockjs-node/info?t=1450447394662'
p401
sa(dp402
g6
I1
sg7
S'/sockjs-node/info?t=1450504453186'
p403
sa(dp404
g6
I1
sg7
S'/sockjs-node/info?t=1450441655369'
p405
sa(dp406
g6
I1
sg7
S'/sockjs-node/info?t=1450504395937'
p407
sa(dp408
g6
I1
sg7
S'/sockjs-node/info?t=1450446417109'
p409
sa(dp410
g6
I1
sg7
S'/sockjs-node/info?t=1450447323635'
p411
sa(dp412
g6
I1
sg7
S'/sockjs-node/info?t=1450504317950'
p413
sa(dp414
g6
I1
sg7
S'/sockjs-node/info?t=1450504503897'
p415
sa(dp416
g6
I1
sg7
S'/sockjs-node/info?t=1450446790836'
p417
sa(dp418
g6
I1
sg7
S'/sockjs-node/info?t=1450441708301'
p419
sa(dp420
g6
I1
sg7
S'/sockjs-node/info?t=1450449196962'
p421
sa(dp422
g6
I1
sg7
S'/sockjs-node/info?t=1450448633046'
p423
sa(dp424
g6
I1
sg7
S'/sockjs-node/info?t=1450446860854'
p425
sa(dp426
g6
I1
sg7
S'/sockjs-node/info?t=1450446783651'
p427
sa(dp428
g6
I1
sg7
S'/sockjs-node/info?t=1450446325418'
p429
sa(dp430
g6
I1
sg7
S'/sockjs-node/info?t=1450449573738'
p431
sa(dp432
g6
I1
sg7
S'/sockjs-node/info?t=1450440544385'
p433
sa(dp434
g6
I1
sg7
S'/sockjs-node/info?t=1450441343214'
p435
sa(dp436
g6
I1
sg7
S'/sockjs-node/info?t=1450449852844'
p437
sa(dp438
g6
I1
sg7
S'/sockjs-node/info?t=1450446711656'
p439
sa(dp440
g6
I1
sg7
S'/sockjs-node/info?t=1450441501892'
p441
sa(dp442
g6
I1
sg7
S'/sockjs-node/info?t=1450446955645'
p443
sa(dp444
g6
I1
sg7
S'/sockjs-node/info?t=1450441714522'
p445
sa(dp446
g6
I1
sg7
S'/sockjs-node/info?t=1450449984838'
p447
sa(dp448
g6
I1
sg7
S'/sockjs-node/info?t=1450449385774'
p449
sa(dp450
g6
I1
sg7
S'/sockjs-node/info?t=1450441416031'
p451
sa(dp452
g6
I1
sg7
S'/sockjs-node/info?t=1450449054884'
p453
sa(dp454
g6
I1
sg7
S'/sockjs-node/info?t=1450440525136'
p455
sa(dp456
g6
I1
sg7
S'/sockjs-node/info?t=1450440654949'
p457
sa(dp458
g6
I1
sg7
S'/sockjs-node/info?t=1450446866908'
p459
sa(dp460
g6
I1
sg7
S'/api/0/organizations/ab/stats/?since=1455778342.635&stat=received&group=project'
p461
sa(dp462
g6
I1
sg7
S'/sockjs-node/info?t=1450440603987'
p463
sa(dp464
g6
I1
sg7
S'/sockjs-node/info?t=1450448664913'
p465
sa(dp466
g6
I1
sg7
S'/sockjs-node/info?t=1450446537670'
p467
sa(dp468
g6
I1
sg7
S'/sockjs-node/info?t=1450449162889'
p469
sa(dp470
g6
I5
sg7
S'/OpenSans-Regular-webfont.woff'
p471
sa(dp472
g6
I1
sg7
S'/sockjs-node/info?t=1450448180029'
p473
sa(dp474
g6
I1
sg7
S'/sockjs-node/info?t=1450447154670'
p475
sa(dp476
g6
I1
sg7
S'/sockjs-node/info?t=1450450014097'
p477
sa(dp478
g6
I1
sg7
S'/sockjs-node/info?t=1450446973744'
p479
sa(dp480
g6
I1
sg7
S'/sockjs-node/info?t=1450448688899'
p481
sa(dp482
g6
I4
sg7
S'/vendor.bundle.js'
p483
sa(dp484
g6
I1
sg7
S'/sockjs-node/info?t=1450448652583'
p485
sa(dp486
g6
I1
sg7
S'/sockjs-node/info?t=1450504740604'
p487
sa(dp488
g6
I1
sg7
S'/sockjs-node/info?t=1450446377776'
p489
sa(dp490
g6
I1
sg7
S'/sockjs-node/info?t=1450441582432'
p491
sa(dp492
g6
I1
sg7
S'/sockjs-node/info?t=1450440517940'
p493
sa(dp494
g6
I1
sg7
S'/sockjs-node/info?t=1450504422897'
p495
sa(dp496
g6
I1
sg7
S'/sockjs-node/info?t=1450449720849'
p497
sa(dp498
g6
I1
sg7
S'/_static/sentry//images/org-logo-normal.png'
p499
sa(dp500
g6
I1
sg7
S'/sockjs-node/info?t=1450448232605'
p501
sa(dp502
g6
I1
sg7
S'/sockjs-node/info?t=1450440667068'
p503
sa(dp504
g6
I1
sg7
S'/api/0/organizations/?member=1'
p505
sa(dp506
g6
I1
sg7
S'/sockjs-node/info?t=1450447662079'
p507
sa(dp508
g6
I1
sg7
S'/ab/'
p509
sa(dp510
g6
I1
sg7
S'/sockjs-node/info?t=1450449343859'
p511
sa(dp512
g6
I1
sg7
S'/sockjs-node/info?t=1450448160003'
p513
sa(dp514
g6
I1
sg7
S'/sockjs-node/info?t=1450448479842'
p515
sa(dp516
g6
I1
sg7
S'/sockjs-node/info?t=1450449900843'
p517
sa(dp518
g6
I1
sg7
S'/api/0/internal/health/'
p519
sa(dp520
g6
I1
sg7
S'/sockjs-node/info?t=1450446621665'
p521
sa(dp522
g6
I1
sg7
S'/sockjs-node/info?t=1450504746919'
p523
sa(dp524
g6
I3
sg7
S'/6.6.c62633ed2706bc89c199.js'
p525
sa(dp526
g6
I1
sg7
S'/sockjs-node/info?t=1450447209631'
p527
sa(dp528
g6
I1
sg7
S'/sockjs-node/info?t=1450447350636'
p529
sa(dp530
g6
I1
sg7
S'/sockjs-node/info?t=1450446967939'
p531
sa(dp532
g6
I1
sg7
S'/sockjs-node/info?t=1450504476369'
p533
sa(dp534
g6
I1
sg7
S'/sockjs-node/info?t=1450449090632'
p535
sa(dp536
g6
I1
sg7
S'/sockjs-node/info?t=1450446693663'
p537
sa(dp538
g6
I1
sg7
S'/sockjs-node/info?t=1450441666966'
p539
sa(dp540
g6
I1
sg7
S'/sockjs-node/info?t=1450441398030'
p541
sa(dp542
g6
I1
sg7
S'/sockjs-node/info?t=1450447788936'
p543
sa(dp544
g6
I1
sg7
S'/sockjs-node/info?t=1450447776937'
p545
sa(dp546
g6
I1
sg7
S'/sockjs-node/info?t=1450441679506'
p547
sa(dp548
g6
I1
sg7
S'/sockjs-node/info?t=1450449030889'
p549
sa(dp550
g6
I4
sg7
S'/translations.c62633ed2706bc89c199.js'
p551
sa(dp552
g6
I1
sg7
S'/sockjs-node/info?t=1450449614757'
p553
sa(dp554
g6
I1
sg7
S'/sockjs-node/info?t=1450448758883'
p555
sa(dp556
g6
I1
sg7
S'/sockjs-node/info?t=1450448994887'
p557
sa(dp558
g6
I1
sg7
S'/sockjs-node/info?t=1450448796914'
p559
sa(dp560
g6
I1
sg7
S'/sockjs-node/info?t=1450446847812'
p561
sa(dp562
g6
I1
sg7
S'/sockjs-node/info?t=1450446405056'
p563
sa(dp564
g6
I1
sg7
S'/sockjs-node/info?t=1450448946884'
p565
sa(dp566
g6
I1
sg7
S'/sockjs-node/info?t=1450446803726'
p567
sa(dp568
g6
I1
sg7
S'/sockjs-node/info?t=1450448046913'
p569
sa(dp570
g6
I1
sg7
S'/sockjs-node/info?t=1450446993814'
p571
sa(dp572
g6
I1
sg7
S'/sockjs-node/info?t=1450448107911'
p573
sa(dp574
g6
I1
sg7
S'/sockjs-node/info?t=1450448910569'
p575
sa(dp576
g6
I1
sg7
S'/sockjs-node/info?t=1450504305940'
p577
sa(dp578
g6
I1
sg7
S'/sockjs-node/info?t=1450447106712'
p579
sa(dp580
g6
I1
sg7
S'/sockjs-node/info?t=1450504744909'
p581
sa(dp582
g6
I1
sg7
S'/sockjs-node/info?t=1450449497981'
p583
sa(dp584
g6
I1
sg7
S'/sockjs-node/info?t=1450448070911'
p585
sa(dp586
g6
I1
sg7
S'/sockjs-node/info?t=1450441403901'
p587
sa(dp588
g6
I1
sg7
S'/sockjs-node/info?t=1450446398962'
p589
sa(dp590
g6
I1
sg7
S'/sockjs-node/info?t=1450447337899'
p591
sa(dp592
g6
I1
sg7
S'/sockjs-node/info?t=1450441546885'
p593
sa(dp594
g6
I1
sg7
S'/sockjs-node/info?t=1450446358676'
p595
sa(dp596
g6
I1
sg7
S'/sockjs-node/info?t=1450447525621'
p597
sa(dp598
g6
I1
sg7
S'/sockjs-node/info?t=1450447177238'
p599
sa(dp600
g6
I1
sg7
S'/sockjs-node/info?t=1450446878960'
p601
sa(dp602
g6
I1
sg7
S'/sockjs-node/info?t=1450448059041'
p603
sa(dp604
g6
I1
sg7
S'/sockjs-node/info?t=1450447543962'
p605
sa(dp606
g6
I1
sg7
S'/sockjs-node/info?t=1450441391909'
p607
sa(dp608
g6
I1
sg7
S'/sockjs-node/info?t=1450446370669'
p609
sa(dp610
g6
I1
sg7
S'/sockjs-node/info?t=1450446903251'
p611
sa(dp612
g6
I1
sg7
S'/sockjs-node/info?t=1450449271647'
p613
sa(dp614
g6
I1
sg7
S'/sockjs-node/info?t=1450449428575'
p615
sa(dp616
g6
I1
sg7
S'/sockjs-node/info?t=1450449660005'
p617
sa(dp618
g6
I1
sg7
S'/sockjs-node/info?t=1450446567670'
p619
sa(dp620
g6
I2
sg7
S'/dc.js.map'
p621
sa(dp622
g6
I1
sg7
S'/sockjs-node/info?t=1450446777643'
p623
sa(dp624
g6
I1
sg7
S'/sockjs-node/info?t=1450440563221'
p625
sa(dp626
g6
I1
sg7
S'/sockjs-node/info?t=1450449234891'
p627
sa(dp628
g6
I1
sg7
S'/sockjs-node/info?t=1450449828837'
p629
sa(dp630
g6
I1
sg7
S'/sockjs-node/info?t=1450446723660'
p631
sa(dp632
g6
I1
sg7
S'/sockjs-node/info?t=1450446759660'
p633
sa(dp634
g6
I1
sg7
S'/sockjs-node/info?t=1450449529760'
p635
sa(dp636
g6
I1
sg7
S'/sockjs-node/info?t=1450446651660'
p637
sa(dp638
g6
I1
sg7
S'/sockjs-node/info?t=1450448153076'
p639
sa(dp640
g6
I1
sg7
S'/sockjs-node/info?t=1450446457012'
p641
sa(dp642
g6
I1
sg7
S'/sockjs-node/info?t=1450449487647'
p643
sa(dp644
g6
I1
sg7
S'/sockjs-node/info?t=1450446525660'
p645
sa(dp646
g6
I1
sg7
S'/sockjs-node/info?t=1450450044538'
p647
sa(dp648
g6
I1
sg7
S'/sockjs-node/info?t=1450504383943'
p649
sa(dp650
g6
I1
sg7
S'/sockjs-node/info?t=1450449203024'
p651
sa(dp652
g6
I1
sg7
S'/sockjs-node/info?t=1450446753654'
p653
sa(dp654
g6
I1
sg7
S'/sockjs-node/info?t=1450447709101'
p655
sa(dp656
g6
I1
sg7
S'/sockjs-node/info?t=1450448388911'
p657
sa(dp658
g6
I1
sg7
S'/sockjs-node/info?t=1450504515892'
p659
sa(dp660
g6
I1
sg7
S'/sockjs-node/info?t=1450441370105'
p661
sa(dp662
g6
I1
sg7
S'/sockjs-node/info?t=1450446489733'
p663
sa(dp664
g6
I1
sg7
S'/sockjs-node/info?t=1450449996842'
p665
sa(dp666
g6
I1
sg7
S'/sockjs-node/info?t=1450449412729'
p667
sa(dp668
g6
I1
sg7
S'/sockjs-node/info?t=1450449732848'
p669
sa(dp670
g6
I1
sg7
S'/sockjs-node/info?t=1450440575612'
p671
sa(dp672
g6
I1
sg7
S'/sockjs-node/info?t=1450447286914'
p673
sa(dp674
g6
I1
sg7
S'/sockjs-node/info?t=1450449648860'
p675
sa(dp676
g6
I1
sg7
S'/sockjs-node/info?t=1450504288079'
p677
sa(dp678
g6
I1
sg7
S'/sockjs-node/info?t=1450448340918'
p679
sa(dp680
g6
I1
sg7
S'/sockjs-node/info?t=1450446717652'
p681
sa(dp682
g6
I1
sg7
S'/sockjs-node/info?t=1450504335907'
p683
sa(dp684
g6
I1
sg7
S'/sockjs-node/info?t=1450447682383'
p685
sa(dp686
g6
I1
sg7
S'/sockjs-node/info?t=1450447305667'
p687
sa(dp688
g6
I1
sg7
S'/sockjs-node/info?t=1450446645652'
p689
sa(dp690
g6
I1
sg7
S'/sockjs-node/info?t=1450449768844'
p691
sa(dp692
g6
I1
sg7
S'/sockjs-node/info?t=1450447228627'
p693
sa(dp694
g6
I1
sg7
S'/sockjs-node/info?t=1450447066643'
p695
sa(dp696
g6
I1
sg7
S'/sockjs-node/info?t=1450446555669'
p697
sa(dp698
g6
I1
sg7
S'/sockjs-node/info?t=1450446771645'
p699
sa(dp700
g6
I1
sg7
S'/sockjs-node/info?t=1450447614795'
p701
sa(dp702
g6
I1
sg7
S'/sockjs-node/info?t=1450446443666'
p703
sa(dp704
g6
I1
sg7
S'/sockjs-node/info?t=1450449281990'
p705
sa(dp706
g6
I1
sg7
S'/sockjs-node/info?t=1450449792830'
p707
sa(dp708
g6
I20
sg7
S'/auth/login/'
p709
sa(dp710
g6
I1
sg7
S'/sockjs-node/info?t=1450449948837'
p711
sa(dp712
g6
I1
sg7
S'/sockjs-node/info?t=1450446699651'
p713
sa(dp714
g6
I1
sg7
S'/sockjs-node/info?t=1450504389950'
p715
sa(dp716
g6
I1
sg7
S'/sockjs-node/info?t=1450447752947'
p717
sa(dp718
g6
I1
sg7
S'/sockjs-node/info?t=1450450004486'
p719
sa(dp720
g6
I1
sg7
S'/sockjs-node/info?t=1450440622017'
p721
sa(dp722
g6
I1
sg7
S'/sockjs-node/info?t=1450449888839'
p723
sa(dp724
g6
I1
sg7
S'/sockjs-node/info?t=1450447124682'
p725
sa(dp726
g6
I1
sg7
S'/sockjs-node/info?t=1450448934885'
p727
sa(dp728
g6
I1
sg7
S'/sockjs-node/info?t=1450440673022'
p729
sa(dp730
g6
I1
sg7
S'/sockjs-node/info?t=1450450053897'
p731
sa(dp732
g6
I1
sg7
S'/sockjs-node/info?t=1450449912847'
p733
sa(dp734
g6
I1
sg7
S'/sockjs-node/info?t=1450449376398'
p735
sa(dp736
g6
I1
sg7
S'/sockjs-node/info?t=1450447810870'
p737
sa(dp738
g6
I1
sg7
S'/sockjs-node/info?t=1450446657654'
p739
sa(dp740
g6
I1
sg7
S'/sockjs-node/info?t=1450447437701'
p741
sa(dp742
g6
I1
sg7
S'/sockjs-node/info?t=1450448410845'
p743
sa(dp744
g6
I1
sg7
S'/sockjs-node/info?t=1450446816656'
p745
sa(dp746
g6
I1
sg7
S'/sockjs-node/info?t=1450448568927'
p747
sa(dp748
g6
I1
sg7
S'/sockjs-node/info?t=1450440504952'
p749
sa(dp750
g6
I1
sg7
S'/sockjs-node/info?t=1450504548407'
p751
sa(dp752
g6
I1
sg7
S'/sockjs-node/info?t=1450446591655'
p753
sa(dp754
g6
I1
sg7
S'/sockjs-node/info?t=1450440551135'
p755
sa(dp756
g6
I1
sg7
S'/sockjs-node/info?t=1450441569905'
p757
sa(dp758
g6
I1
sg7
S'/sockjs-node/info?t=1450447419001'
p759
sa(dp760
g6
I1
sg7
S'/sockjs-node/info?t=1450449636872'
p761
sa(dp762
g6
I1
sg7
S'/sockjs-node/info?t=1450446482706'
p763
sa(dp764
g6
I1
sg7
S'/sockjs-node/info?t=1450504360094'
p765
sa(dp766
g6
I1
sg7
S'/sockjs-node/info?t=1450447035647'
p767
sa(dp768
g6
I1
sg7
S'/sockjs-node/info?t=1450440569284'
p769
sa(dp770
g6
I1
sg7
S'/sockjs-node/info?t=1450441614900'
p771
sa(dp772
g6
I1
sg7
S'/sockjs-node/info?t=1450447086644'
p773
sa(dp774
g6
I1
sg7
S'/sockjs-node/info?t=1450447800006'
p775
sa(dp776
g6
I1
sg7
S'/sockjs-node/info?t=1450448958876'
p777
sa(dp778
g6
I1
sg7
S'/sockjs-node/info?t=1450446350789'
p779
sa(dp780
g6
I1
sg7
S'/sockjs-node/info?t=1450448838910'
p781
sa(dp782
g6
I1
sg7
S'/sockjs-node/info?t=1450440531980'
p783
sa(dp784
g6
I1
sg7
S'/sockjs-node/info?t=1450447298612'
p785
sa(dp786
g6
I1
sg7
S'/sockjs-node/info?t=1450449134643'
p787
sa(dp788
g6
I1
sg7
S'/sockjs-node/info?t=1450447641839'
p789
sa(dp790
g6
I1
sg7
S'/sockjs-node/info?t=1450447343921'
p791
sa(dp792
g6
I1
sg7
S'/sockjs-node/info?t=1450448089074'
p793
sa(dp794
g6
I1
sg7
S'/sockjs-node/info?t=1450448460003'
p795
sa(dp796
g6
I1
sg7
S'/sockjs-node/info?t=1450448285066'
p797
sa(dp798
g6
I1
sg7
S'/sockjs-node/info?t=1450447363628'
p799
sa(dp800
g6
I1
sg7
S'/sockjs-node/info?t=1450446345508'
p801
sa(dp802
g6
I1
sg7
S'/sockjs-node/info?t=1450447887921'
p803
sa(dp804
g6
I1
sg7
S'/sockjs-node/info?t=1450441511497'
p805
sa(dp806
g6
I1
sg7
S'/sockjs-node/info?t=1450447443752'
p807
sa(dp808
g6
I1
sg7
S'/sockjs-node/info?t=1450448720572'
p809
sa(dp810
g6
I1
sg7
S'/sockjs-node/info?t=1450446561666'
p811
sa(dp812
g6
I1
sg7
S'/sockjs-node/info?t=1450446627667'
p813
sa(dp814
g6
I1
sg7
S'/sockjs-node/info?t=1450447482624'
p815
sa(dp816
g6
I1
sg7
S'/sockjs-node/info?t=1450449520407'
p817
sa(dp818
g6
I1
sg7
S'/sockjs-node/info?t=1450446543661'
p819
sa(dp820
g6
I1
sg7
S'/sockjs-node/info?t=1450446332888'
p821
sa(dp822
g6
I1
sg7
S'/sockjs-node/info?t=1450448509894'
p823
sa(dp824
g6
I1
sg7
S'/sockjs-node/info?t=1450448642763'
p825
sa(dp826
g6
I1
sg7
S'/sockjs-node/info?t=1450448328914'
p827
sa(dp828
g6
I1
sg7
S'/sockjs-node/info?t=1450446597649'
p829
sa(dp830
g6
I1
sg7
S'/sockjs-node/info?t=1450449756836'
p831
sa(dp832
g6
I1
sg7
S'/sockjs-node/info?t=1450446986744'
p833
sa(dp834
g6
I1
sg7
S'/sockjs-node/info?t=1450441660902'
p835
sa(dp836
g6
I1
sg7
S'/sockjs-node/info?t=1450450065302'
p837
sa(dp838
g6
I1
sg7
S'/sockjs-node/info?t=1450504401942'
p839
sa(dp840
g6
I1
sg7
S'/sockjs-node/info?t=1450447893586'
p841
sa(dp842
g6
I1
sg7
S'/sockjs-node/info?t=1450448003946'
p843
sa(dp844
g6
I1
sg7
S'/sockjs-node/info?t=1450447945855'
p845
sa(dp846
g6
I1
sg7
S'/sockjs-node/info?t=1450441683918'
p847
sa(dp848
g6
I1
sg7
S'/sockjs-node/info?t=1450447449620'
p849
sa(dp850
g6
I2
sg7
S'/app.9d15ad145512a2325cd4.js'
p851
sa(dp852
g6
I1
sg7
S'/sockjs-node/info?t=1450446507654'
p853
sa(dp854
g6
I1
sg7
S'/sockjs-node/info?t=1450448710821'
p855
sa(dp856
g6
I1
sg7
S'/sockjs-node/info?t=1450447377239'
p857
sa(dp858
g6
I1
sg7
S'/sockjs-node/info?t=1450504431870'
p859
sa(dp860
g6
I1
sg7
S'/sockjs-node/info?t=1450504543122'
p861
sa(dp862
g6
I1
sg7
S'/sockjs-node/info?t=1450446430660'
p863
sa(dp864
g6
I1
sg7
S'/sockjs-node/info?t=1450449864842'
p865
sa(dp866
g6
I1
sg7
S'/sockjs-node/info?t=1450449102896'
p867
sa(dp868
g6
I1
sg7
S'/sockjs-node/info?t=1450449924840'
p869
sa(dp870
g6
I1
sg7
S'/sockjs-node/info?t=1450446609690'
p871
sa(dp872
g6
I1
sg7
S'/sockjs-node/info?t=1450441588440'
p873
sa(dp874
g6
I1
sg7
S'/sockjs-node/info?t=1450504509897'
p875
sa(dp876
g6
I1
sg7
S'/sockjs-node/info?t=1450441696334'
p877
sa(dp878
g6
I1
sg7
S'/sockjs-node/info?t=1450446747640'
p879
sa(dp880
g6
I1
sg7
S'/sockjs-node/info?t=1450447462618'
p881
sa(dp882
g6
I1
sg7
S'/sockjs-node/info?t=1450448279012'
p883
sa(dp884
g6
I1
sg7
S'/sockjs-node/info?t=1450447073899'
p885
sa(dp886
g6
I1
sg7
S'/sockjs-node/info?t=1450446944684'
p887
sa(dp888
g6
I1
sg7
S'/sockjs-node/info?t=1450441575930'
p889
sa(dp890
g6
I1
sg7
S'/sockjs-node/info?t=1450447567615'
p891
sa(dp892
g6
I1
sg7
S'/sockjs-node/info?t=1450447531876'
p893
sa(dp894
g6
I1
sg7
S'/sockjs-node/info?t=1450448256909'
p895
sa(dp896
g6
I1
sg7
S'/sockjs-node/info?t=1450447835070'
p897
sa(dp898
g6
I1
sg7
S'/sockjs-node/info?t=1450446633658'
p899
sa(dp900
g6
I1
sg7
S'/sockjs-node/info?t=1450448294786'
p901
sa(dp902
g6
I1
sg7
S'/sockjs-node/info?t=1450447577960'
p903
sa(dp904
g6
I1
sg7
S'/sockjs-node/info?t=1450446639651'
p905
sa(dp906
g6
I1
sg7
S'/sockjs-node/info?t=1450504353907'
p907
sa(dp908
g6
I33
sg7
S'/favicon.ico'
p909
sa(dp910
g6
I1
sg7
S'/sockjs-node/info?t=1450446450653'
p911
sa(dp912
g6
I1
sg7
S'/sockjs-node/info?t=1450449462862'
p913
sa(dp914
g6
I1
sg7
S'/sockjs-node/info?t=1450447475934'
p915
sa(dp916
g6
I1
sg7
S'/sockjs-node/info?t=1450449563880'
p917
sa(dp918
g6
I1
sg7
S'/sockjs-node/info?t=1450504491904'
p919
sa(dp920
g6
I1
sg7
S'/sockjs-node/info?t=1450446663657'
p921
sa(dp922
g6
I1
sg7
S'/sockjs-node/info?t=1450448530991'
p923
sa(dp924
g6
I1
sg7
S'/sockjs-node/info?t=1450449333758'
p925
sa(dp926
g6
I1
sg7
S'/sockjs-node/info?t=1450441534230'
p927
sa(dp928
g6
I1
sg7
S'/sockjs-node/info?t=1450447188622'
p929
sa(dp930
g6
I1
sg7
S'/sockjs-node/info?t=1450504533373'
p931
sa(dp932
g6
I1
sg7
S'/sockjs-node/info?t=1450448136029'
p933
sa(dp934
g6
I1
sg7
S'/sockjs-node/info?t=1450449804842'
p935
sa(dp936
g6
I1
sg7
S'/sockjs-node/info?t=1450446921225'
p937
sa(dp938
g6
I1
sg7
S'/sockjs-node/info?t=1450448207505'
p939
sa(dp940
g6
I1
sg7
S'/sockjs-node/info?t=1450449438552'
p941
sa(dp942
g6
I1
sg7
S'/sockjs-node/info?t=1450504729919'
p943
sa(dp944
g6
I1
sg7
S'/sockjs-node/info?t=1450448499797'
p945
sa(dp946
g6
I1
sg7
S'/sockjs-node/info?t=1450447182634'
p947
sa(dp948
g6
I1
sg7
S'/sockjs-node/info?t=1450440616675'
p949
sa(dp950
g6
I1
sg7
S'/sockjs-node/info?t=1450447870837'
p951
sa(dp952
g6
I1
sg7
S'/sockjs-node/info?t=1450450024763'
p953
sa(dp954
g6
I1
sg7
S'/sockjs-node/info?t=1450448447016'
p955
sa(dp956
g6
I1
sg7
S'/sockjs-node/info?t=1450440660973'
p957
sa(dp958
g6
I1
sg7
S'/sockjs-node/info?t=1450440647746'
p959
sa(dp960
g6
I1
sg7
S'/sockjs-node/info?t=1450441528219'
p961
sa(dp962
g6
I1
sg7
S'/sockjs-node/info?t=1450446318671'
p963
sa(dp964
g6
I2
sg7
S'/config.9d15ad145512a2325cd4.js'
p965
sa(dp966
g6
I1
sg7
S'/sockjs-node/info?t=1450504299974'
p967
sa(dp968
g6
I1
sg7
S'/sockjs-node/info?t=1450441563886'
p969
sa(dp970
g6
I1
sg7
S'/sockjs-node/info?t=1450447247946'
p971
sa(dp972
g6
I1
sg7
S'/sockjs-node/info?t=1450449185520'
p973
sa(dp974
g6
I1
sg7
S'/sockjs-node/info?t=1450441702296'
p975
sa(dp976
g6
I1
sg7
S'/sockjs-node/info?t=1450447973068'
p977
sa(dp978
g6
I1
sg7
S'/sockjs-node/info?t=1450448116420'
p979
sa(dp980
g6
I1
sg7
S'/sockjs-node/info?t=1450449114872'
p981
sa(dp982
g6
I1
sg7
S'/sockjs-node/info?t=1450449042882'
p983
sa(dp984
g6
I1
sg7
S'/sockjs-node/info?t=1450447555900'
p985
sa(dp986
g6
I1
sg7
S'/sockjs-node/info?t=1450441672901'
p987
sa(dp988
g6
I1
sg7
S'/sockjs-node/info?t=1450441375893'
p989
sa(dp990
g6
I1
sg7
S'/sockjs-node/info?t=1450449604990'
p991
sa(dp992
g6
I1
sg7
S'/sockjs-node/info?t=1450441594339'
p993
sa(dp994
g6
I1
sg7
S'/sockjs-node/info?t=1450440598638'
p995
sa(dp996
g6
I1
sg7
S'/sockjs-node/info?t=1450447509247'
p997
sa(dp998
g6
I1
sg7
S'/sockjs-node/info?t=1450448627009'
p999
sa(dp1000
g6
I1
sg7
S'/sockjs-node/info?t=1450446896681'
p1001
sa(dp1002
g6
I1
sg7
S'/sockjs-node/info?t=1450447589057'
p1003
sa(dp1004
g6
I1
sg7
S'/sockjs-node/info?t=1450447652043'
p1005
sa(dp1006
g6
I1
sg7
S'/sockjs-node/info?t=1450447371193'
p1007
sa(dp1008
g6
I1
sg7
S'/sockjs-node/info?t=1450447718810'
p1009
sa(dp1010
g6
I1
sg7
S'/sockjs-node/info?t=1450447412997'
p1011
sa(dp1012
g6
I1
sg7
S'/sockjs-node/info?t=1450446495660'
p1013
sa(dp1014
g6
I1
sg7
S'/sockjs-node/info?t=1450447514689'
p1015
sa(dp1016
g6
I1
sg7
S'/sockjs-node/info?t=1450446549672'
p1017
sa(dp1018
g6
I1
sg7
S'/sockjs-node/info?t=1450447330807'
p1019
sa(dp1020
g6
I1
sg7
S'/sockjs-node/info?t=1450504486136'
p1021
sa(dp1022
g6
I1
sg7
S'/sockjs-node/info?t=1450447170059'
p1023
sa(dp1024
g6
I1
sg7
S'/loginsight'
p1025
sa(dp1026
g6
I1
sg7
S'/sockjs-node/info?t=1450446438031'
p1027
sa(dp1028
g6
I1
sg7
S'/sockjs-node/info?t=1450448015037'
p1029
sa(dp1030
g6
I1
sg7
S'/sockjs-node/info?t=1450447521344'
p1031
sa(dp1032
g6
I1
sg7
S'/sockjs-node/info?t=1450447197696'
p1033
sa(dp1034
g6
I1
sg7
S'/sockjs-node/info?t=1450446391673'
p1035
sa(dp1036
g6
I1
sg7
S'/sockjs-node/info?t=1450447469780'
p1037
sa(dp1038
g6
I1
sg7
S'/sockjs-node/info?t=1450504365886'
p1039
sa(dp1040
g6
I1
sg7
S'/api/0/broadcasts/'
p1041
sa(dp1042
g6
I1
sg7
S'/sockjs-node/info?t=1450447281419'
p1043
sa(dp1044
g6
I1
sg7
S'/sockjs-node/info?t=1450441349351'
p1045
sa(dp1046
g6
I1
sg7
S'/sockjs-node/info?t=1450449006882'
p1047
sa(dp1048
g6
I1
sg7
S'/sockjs-node/info?t=1450446579658'
p1049
sa(dp1050
g6
I1
sg7
S'/sockjs-node/info?t=1450447595105'
p1051
sa(dp1052
g6
I1
sg7
S'/sockjs-node/info?t=1450504713830'
p1053
sa(dp1054
g6
I1
sg7
S'/sockjs-node/info?t=1450448537058'
p1055
sa(dp1056
g6
I1
sg7
S'/sockjs-node/info?t=1450446465525'
p1057
sa(dp1058
g6
I1
sg7
S'/sockjs-node/info?t=1450446669655'
p1059
sa(dp1060
g6
I1
sg7
S'/sockjs-node/info?t=1450448147067'
p1061
sa(dp1062
g6
I1
sg7
S'/sockjs-node/info?t=1450447841091'
p1063
sa(dp1064
g6
I1
sg7
S'/sockjs-node/info?t=1450448774766'
p1065
sa(dp1066
g6
I1
sg7
S'/sockjs-node/info?t=1450441319237'
p1067
sa(dp1068
g6
I1
sg7
S'/sockjs-node/info?t=1450447136691'
p1069
sa(dp1070
g6
I1
sg7
S'/sockjs-node/info?t=1450441521902'
p1071
sa(dp1072
g6
I1
sg7
S'/sockjs-node/info?t=1450448700003'
p1073
sa(dp1074
g6
I1
sg7
S'/sockjs-node/info?t=1450448590833'
p1075
sa(dp1076
g6
I1
sg7
S'/sockjs-node/info?t=1450446841836'
p1077
sa(dp1078
g6
I1
sg7
S'/sockjs-node/info?t=1450449313508'
p1079
sa(dp1080
g6
I1
sg7
S'/sockjs-node/info?t=1450449624533'
p1081
sa(dp1082
g6
I1
sg7
S'/sockjs-node/info?t=1450446949628'
p1083
sa(dp1084
g6
I1
sg7
S'/sockjs-node/info?t=1450447221633'
p1085
sa(dp1086
g6
I59
sg7
S'/'
p1087
sa(dp1088
g6
I1
sg7
S'/sockjs-node/info?t=1450447234787'
p1089
sa(dp1090
g6
I1
sg7
S'/sockjs-node/info?t=1450504722867'
p1091
sa(dp1092
g6
I1
sg7
S'/sockjs-node/info?t=1450440506166'
p1093
sa(dp1094
g6
I1
sg7
S'/sockjs-node/info?t=1450504377946'
p1095
sa(dp1096
g6
I1
sg7
S'/sockjs-node/info?t=1450446501654'
p1097
sa(dp1098
g6
I1
sg7
S'/sockjs-node/info?t=1450447691864'
p1099
sa(dp1100
g6
I1
sg7
S'/sockjs-node/info?t=1450449936844'
p1101
sa(dp1102
g6
I1
sg7
S'/sockjs-node/info?t=1450448097828'
p1103
sa(dp1104
g6
I1
sg7
S'/sockjs-node/info?t=1450449744841'
p1105
sa(dp1106
g6
I1
sg7
S'/sockjs-node/info?t=1450447455630'
p1107
sa(dp1108
g6
I1
sg7
S'/sockjs-node/info?t=1450449680519'
p1109
sa(dp1110
g6
I1
sg7
S'/sockjs-node/info?t=1450448169802'
p1111
sa(dp1112
g6
I1
sg7
S'/sockjs-node/info?t=1450450060730'
p1113
sa(dp1114
g6
I1
sg7
S'/sockjs-node/info?t=1450446513663'
p1115
sa(dp1116
g6
I1
sg7
S'/sockjs-node/info?t=1450441720380'
p1117
sa(dp1118
g6
I1
sg7
S'/sockjs-node/info?t=1450446823676'
p1119
sa(dp1120
g6
I1
sg7
S'/sockjs-node/info?t=1450447269116'
p1121
sa(dp1122
g6
I1
sg7
S'/sockjs-node/info?t=1450448244934'
p1123
sa(dp1124
g6
I1
sg7
S'/sockjs-node/info?t=1450440502937'
p1125
sa(dp1126
g6
I1
sg7
S'/sockjs-node/info?t=1450446477625'
p1127
sa(dp1128
g6
I1
sg7
S'/sockjs-node/info?t=1450448885003'
p1129
sa(dp1130
g6
I1
sg7
S'/sockjs-node/info?t=1450446729642'
p1131
sa(dp1132
g6
I1
sg7
S'/sockjs-node/info?t=1450448982884'
p1133
sa(dp1134
g6
I2
sg7
S'/translations.9d15ad145512a2325cd4.js'
p1135
sa(dp1136
g6
I1
sg7
S'/sockjs-node/info?t=1450447914028'
p1137
sa(dp1138
g6
I1
sg7
S'/sockjs-node/info?t=1450441490532'
p1139
sa(dp1140
g6
I1
sg7
S'/sockjs-node/info?t=1450447093643'
p1141
sa(dp1142
g6
I1
sg7
S'/sockjs-node/info?t=1450448900757'
p1143
sa(dp1144
g6
I1
sg7
S'/sockjs-node/info?t=1450448213071'
p1145
sa(dp1146
g6
I1
sg7
S'/sockjs-node/info?t=1450447503201'
p1147
sa(dp1148
g6
I1
sg7
S'/sockjs-node/info?t=1450449593983'
p1149
sa(dp1150
g6
I1
sg7
S'/sockjs-node/info?t=1450504293921'
p1151
sa(dp1152
g6
I1
sg7
S'/sockjs-node/info?t=1450441558199'
p1153
sa(dp1154
g6
I1
sg7
S'/sockjs-node/info?t=1450446872675'
p1155
sa(dp1156
g6
I1
sg7
S'/sockjs-node/info?t=1450447620598'
p1157
sa(dp1158
g6
I1
sg7
S'/sockjs-node/info?t=1450446383823'
p1159
sa(dp1160
g6
I1
sg7
S'/sockjs-node/info?t=1450447011649'
p1161
sa(dp1162
g6
I1
sg7
S'/api/0/organizations/ab/stats/?since=1455853942.642&resolution=1h&stat=received'
p1163
sa(dp1164
g6
I1
sg7
S'/sockjs-node/info?t=1450441624416'
p1165
sa(dp1166
g6
I1
sg7
S'/sockjs-node/info?t=1450504727906'
p1167
sa(dp1168
g6
I1
sg7
S'/sockjs-node/info?t=1450448304593'
p1169
sa(dp1170
g6
I1
sg7
S'/sockjs-node/info?t=1450446797698'
p1171
sa(dp1172
g6
I1
sg7
S'/sockjs-node/info?t=1450449018885'
p1173
sa(dp1174
g6
I1
sg7
S'/sockjs-node/info?t=1450447079968'
p1175
sa(dp1176
g6
I1
sg7
S'/sockjs-node/info?t=1450446585658'
p1177
sa(dp1178
g6
I1
sg7
S'/sockjs-node/info?t=1450446735657'
p1179
sa(dp1180
g6
I1
sg7
S'/sockjs-node/info?t=1450447357111'
p1181
sa(dp1182
g6
I1
sg7
S'/sockjs-node/info?t=1450447275375'
p1183
sa(dp1184
g6
I1
sg7
S'/sockjs-node/info?t=1450448784575'
p1185
sa(dp1186
g6
I1
sg7
S'/sockjs-node/info?t=1450448035032'
p1187
sa(dp1188
g6
I1
sg7
S'/sockjs-node/info?t=1450446765639'
p1189
sa(dp1190
g6
I1
sg7
S'/sockjs-node/info?t=1450449780848'
p1191
sa(dp1192
g6
I1
sg7
S'/sockjs-node/info?t=1450448891038'
p1193
sa(dp1194
g6
I1
sg7
S'/sockjs-node/info?t=1450446470979'
p1195
sa(dp1196
g6
I1
sg7
S'/sockjs-node/info?t=1450446913652'
p1197
sa(dp1198
g6
I1
sg7
S'/sockjs-node/info?t=1450448826657'
p1199
sa(dp1200
g6
I1
sg7
S'/sockjs-node/info?t=1450447489192'
p1201
sa(dp1202
g6
I1
sg7
S'/sockjs-node/info?t=1450446573660'
p1203
sa(dp1204
g6
I1
sg7
S'/sockjs-node/info?t=1450447293520'
p1205
sa(dp1206
g6
I1
sg7
S'/sockjs-node/info?t=1450441409991'
p1207
sa(dp1208
g6
I1
sg7
S'/sockjs-node/info?t=1450446339454'
p1209
sa(dp1210
g6
I1
sg7
S'/sockjs-node/info?t=1450449876835'
p1211
sa(dp1212
g6
I1
sg7
S'/sockjs-node/info?t=1450447029647'
p1213
sa(dp1214
g6
I1
sg7
S'/sockjs-node/info?t=1450449304397'
p1215
sa(dp1216
g6
I1
sg7
S'/sockjs-node/info?t=1450449222544'
p1217
sa(dp1218
g6
I1
sg7
S'/sockjs-node/info?t=1450449972834'
p1219
sa(dp1220
g6
I1
sg7
S'/sockjs-node/info?t=1450440634713'
p1221
sa(dp1222
g6
I1
sg7
S'/sockjs-node/info?t=1450448400005'
p1223
sa(dp1224
g6
I1
sg7
S'/sockjs-node/info?t=1450447241874'
p1225
sa(dp1226
g6
I1
sg7
S'/sockjs-node/info?t=1450441495954'
p1227
sa(dp1228
g6
I1
sg7
S'/sockjs-node/info?t=1450447047635'
p1229
sa(dp1230
g6
I1
sg7
S'/sockjs-node/info?t=1450449840845'
p1231
sa(dp1232
g6
I1
sg7
S'/sockjs-node/info?t=1450447215638'
p1233
sa(dp1234
g6
I1
sg7
S'/sockjs-node/info?t=1450441330896'
p1235
sa(dp1236
g6
I1
sg7
S'/sockjs-node/info?t=1450504550419'
p1237
sa(dp1238
g6
I1
sg7
S'/sockjs-node/info?t=1450447631966'
p1239
sa(dp1240
g6
I1
sg7
S'/sockjs-node/info?t=1450441433907'
p1241
sa(dp1242
g6
I1
sg7
S'/sockjs-node/info?t=1450441736186'
p1243
sa(dp1244
g6
I1
sg7
S'/sockjs-node/info?t=1450447425609'
p1245
sa(dp1246
g6
I1
sg7
S'/sockjs-node/info?t=1450446835640'
p1247
sa(dp1248
g6
I1
sg7
S'/sockjs-node/info?t=1450449816849'
p1249
sa(dp1250
g6
I1
sg7
S'/sockjs-node/info?t=1450448922911'
p1251
sa(dp1252
g6
I1
sg7
S'/sockjs-node/info?t=1450446979641'
p1253
sa(dp1254
g6
I1
sg7
S'/sockjs-node/info?t=1450447383335'
p1255
sa(dp1256
g6
I1
sg7
S'/sockjs-node/info?t=1450448546762'
p1257
sa(dp1258
g6
I1
sg7
S'/sockjs-node/info?t=1450447561948'
p1259
sa(dp1260
g6
I1
sg7
S'/sockjs-node/info?t=1450448222779'
p1261
sa(dp1262
g6
I2
sg7
S'/2.LoggedInPage.9d15ad145512a2325cd4.js'
p1263
sa(dp1264
g6
I1
sg7
S'/sockjs-node/info?t=1450441551886'
p1265
sa(dp1266
g6
I1
sg7
S'/sockjs-node/info?t=1450447143261'
p1267
sa(dp1268
g6
I1
sg7
S'/sockjs-node/info?t=1450446364855'
p1269
sa(dp1270
g6
I1
sg7
S'/sockjs-node/info?t=1450447740964'
p1271
sasg7
S'uri'
p1272
sa(dp1273
g2
I616
sg3
(lp1274
(dp1275
g6
I11
sg7
S'http://www.coolshine.net'
p1276
sa(dp1277
g6
I16
sg7
S'http://localhost'
p1278
sa(dp1279
g6
I9
sg7
S'http://127.0.0.1'
p1280
sa(dp1281
g6
I8
sg7
S'http://wanghe.coolshine.net'
p1282
sa(dp1283
g6
I572
sg7
S'http://localhost:8080'
p1284
sasg7
S'referer_'
p1285
sa(dp1286
g2
I695
sg3
(lp1287
(dp1288
g6
I4
sg7
S'/vendor.bundle.js'
p1289
sa(dp1290
g6
I33
sg7
S'/favicon.ico'
p1291
sa(dp1292
g6
I4
sg7
S'/api/0/organizations/ab/stats/'
p1293
sa(dp1294
g6
I1
sg7
S'/_static/sentry//images/org-logo-normal.png'
p1295
sa(dp1296
g6
I20
sg7
S'/auth/login/'
p1297
sa(dp1298
g6
I1
sg7
S'/ab/'
p1299
sa(dp1300
g6
I536
sg7
S'/sockjs-node/info'
p1301
sa(dp1302
g6
I3
sg7
S'/1.LoggedInPage.c62633ed2706bc89c199.js'
p1303
sa(dp1304
g6
I1
sg7
S'/api/0/organizations/ab/'
p1305
sa(dp1306
g6
I2
sg7
S'/app.9d15ad145512a2325cd4.js'
p1307
sa(dp1308
g6
I59
sg7
g1087
sa(dp1309
g6
I3
sg7
S'/6.6.c62633ed2706bc89c199.js'
p1310
sa(dp1311
g6
I3
sg7
S'/app.c62633ed2706bc89c199.js'
p1312
sa(dp1313
g6
I2
sg7
S'/config.9d15ad145512a2325cd4.js'
p1314
sa(dp1315
g6
I1
sg7
S'/loginsight'
p1316
sa(dp1317
g6
I1
sg7
S'/api/0/internal/health/'
p1318
sa(dp1319
g6
I2
sg7
S'/translations.9d15ad145512a2325cd4.js'
p1320
sa(dp1321
g6
I3
sg7
S'/config.js'
p1322
sa(dp1323
g6
I1
sg7
S'/api/0/broadcasts/'
p1324
sa(dp1325
g6
I5
sg7
S'/OpenSans-Regular-webfont.woff'
p1326
sa(dp1327
g6
I1
sg7
S'/api/0/organizations/'
p1328
sa(dp1329
g6
I1
sg7
S'/OpenSans-Bold-webfont.woff'
p1330
sa(dp1331
g6
I4
sg7
S'/translations.c62633ed2706bc89c199.js'
p1332
sa(dp1333
g6
I2
sg7
S'/dc.js.map'
p1334
sa(dp1335
g6
I2
sg7
S'/2.LoggedInPage.9d15ad145512a2325cd4.js'
p1336
sasg7
S'uri_path'
p1337
sa(dp1338
g2
I695
sg3
(lp1339
(dp1340
g6
I695
sg7
S''
p1341
sasg7
S'other'
p1342
sa(dp1343
g2
I695
sg3
(lp1344
(dp1345
g6
I695
sg7
S'HTTP/1.1'
p1346
sasg7
S'version'
p1347
sa(dp1348
g2
I695
sg3
(lp1349
(dp1350
g6
I1
sg7
S'[19/Dec/2015:13:51:28 +0800]'
p1351
sa(dp1352
g6
I1
sg7
S'[18/Dec/2015:22:02:37 +0800]'
p1353
sa(dp1354
g6
I2
sg7
S'[19/Feb/2016:13:05:52 +0800]'
p1355
sa(dp1356
g6
I1
sg7
S'[18/Dec/2015:20:27:59 +0800]'
p1357
sa(dp1358
g6
I1
sg7
S'[18/Dec/2015:22:28:30 +0800]'
p1359
sa(dp1360
g6
I1
sg7
S'[18/Dec/2015:21:47:04 +0800]'
p1361
sa(dp1362
g6
I1
sg7
S'[18/Dec/2015:21:49:09 +0800]'
p1363
sa(dp1364
g6
I1
sg7
S'[18/Dec/2015:22:08:29 +0800]'
p1365
sa(dp1366
g6
I1
sg7
S'[18/Dec/2015:21:51:21 +0800]'
p1367
sa(dp1368
g6
I2
sg7
S'[19/Feb/2016:13:13:42 +0800]'
p1369
sa(dp1370
g6
I1
sg7
S'[18/Dec/2015:21:58:51 +0800]'
p1371
sa(dp1372
g6
I2
sg7
S'[19/Feb/2016:13:14:08 +0800]'
p1373
sa(dp1374
g6
I1
sg7
S'[19/Dec/2015:13:58:42 +0800]'
p1375
sa(dp1376
g6
I1
sg7
S'[18/Dec/2015:21:53:43 +0800]'
p1377
sa(dp1378
g6
I1
sg7
S'[18/Dec/2015:22:39:43 +0800]'
p1379
sa(dp1380
g6
I1
sg7
S'[18/Dec/2015:20:26:09 +0800]'
p1381
sa(dp1382
g6
I1
sg7
S'[18/Dec/2015:20:28:51 +0800]'
p1383
sa(dp1384
g6
I1
sg7
S'[18/Dec/2015:22:31:30 +0800]'
p1385
sa(dp1386
g6
I1
sg7
S'[18/Dec/2015:20:08:45 +0800]'
p1387
sa(dp1388
g6
I1
sg7
S'[18/Dec/2015:22:02:17 +0800]'
p1389
sa(dp1390
g6
I2
sg7
S'[23/Dec/2015:15:03:24 +0800]'
p1391
sa(dp1392
g6
I1
sg7
S'[18/Dec/2015:21:49:51 +0800]'
p1393
sa(dp1394
g6
I1
sg7
S'[18/Dec/2015:22:21:39 +0800]'
p1395
sa(dp1396
g6
I2
sg7
S'[23/Dec/2015:15:03:15 +0800]'
p1397
sa(dp1398
g6
I1
sg7
S'[18/Dec/2015:20:26:15 +0800]'
p1399
sa(dp1400
g6
I1
sg7
S'[19/Feb/2016:13:16:34 +0800]'
p1401
sa(dp1402
g6
I1
sg7
S'[18/Dec/2015:21:50:39 +0800]'
p1403
sa(dp1404
g6
I1
sg7
S'[18/Dec/2015:22:23:53 +0800]'
p1405
sa(dp1406
g6
I1
sg7
S'[18/Dec/2015:22:44:36 +0800]'
p1407
sa(dp1408
g6
I1
sg7
S'[18/Dec/2015:22:00:09 +0800]'
p1409
sa(dp1410
g6
I1
sg7
S'[18/Dec/2015:21:59:03 +0800]'
p1411
sa(dp1412
g6
I1
sg7
S'[19/Dec/2015:13:55:15 +0800]'
p1413
sa(dp1414
g6
I1
sg7
S'[18/Dec/2015:20:28:16 +0800]'
p1415
sa(dp1416
g6
I1
sg7
S'[18/Dec/2015:21:55:33 +0800]'
p1417
sa(dp1418
g6
I1
sg7
S'[18/Dec/2015:20:23:36 +0800]'
p1419
sa(dp1420
g6
I1
sg7
S'[18/Dec/2015:22:05:21 +0800]'
p1421
sa(dp1422
g6
I1
sg7
S'[18/Dec/2015:20:08:56 +0800]'
p1423
sa(dp1424
g6
I1
sg7
S'[18/Dec/2015:22:35:23 +0800]'
p1425
sa(dp1426
g6
I1
sg7
S'[18/Dec/2015:22:38:40 +0800]'
p1427
sa(dp1428
g6
I1
sg7
S'[18/Dec/2015:21:51:33 +0800]'
p1429
sa(dp1430
g6
I1
sg7
S'[18/Dec/2015:21:45:25 +0800]'
p1431
sa(dp1432
g6
I1
sg7
S'[18/Dec/2015:22:00:34 +0800]'
p1433
sa(dp1434
g6
I1
sg7
S'[18/Dec/2015:22:14:30 +0800]'
p1435
sa(dp1436
g6
I1
sg7
S'[18/Dec/2015:21:59:37 +0800]'
p1437
sa(dp1438
g6
I1
sg7
S'[19/Feb/2016:14:52:32 +0800]'
p1439
sa(dp1440
g6
I1
sg7
S'[18/Dec/2015:22:01:09 +0800]'
p1441
sa(dp1442
g6
I1
sg7
S'[18/Dec/2015:21:57:15 +0800]'
p1443
sa(dp1444
g6
I1
sg7
S'[18/Dec/2015:21:54:38 +0800]'
p1445
sa(dp1446
g6
I1
sg7
S'[18/Dec/2015:22:08:11 +0800]'
p1447
sa(dp1448
g6
I1
sg7
S'[18/Dec/2015:22:13:23 +0800]'
p1449
sa(dp1450
g6
I1
sg7
S'[18/Dec/2015:21:57:53 +0800]'
p1451
sa(dp1452
g6
I1
sg7
S'[18/Dec/2015:20:23:18 +0800]'
p1453
sa(dp1454
g6
I1
sg7
S'[18/Dec/2015:21:54:45 +0800]'
p1455
sa(dp1456
g6
I1
sg7
S'[18/Dec/2015:22:11:10 +0800]'
p1457
sa(dp1458
g6
I1
sg7
S'[18/Dec/2015:22:28:20 +0800]'
p1459
sa(dp1460
g6
I1
sg7
S'[18/Dec/2015:20:27:52 +0800]'
p1461
sa(dp1462
g6
I1
sg7
S'[18/Dec/2015:21:49:03 +0800]'
p1463
sa(dp1464
g6
I1
sg7
S'[18/Dec/2015:22:09:48 +0800]'
p1465
sa(dp1466
g6
I1
sg7
S'[18/Dec/2015:22:16:09 +0800]'
p1467
sa(dp1468
g6
I1
sg7
S'[18/Dec/2015:22:45:24 +0800]'
p1469
sa(dp1470
g6
I1
sg7
S'[18/Dec/2015:22:07:11 +0800]'
p1471
sa(dp1472
g6
I1
sg7
S'[18/Dec/2015:22:07:32 +0800]'
p1473
sa(dp1474
g6
I1
sg7
S'[18/Dec/2015:20:28:10 +0800]'
p1475
sa(dp1476
g6
I1
sg7
S'[18/Dec/2015:22:20:53 +0800]'
p1477
sa(dp1478
g6
I1
sg7
S'[18/Dec/2015:22:35:43 +0800]'
p1479
sa(dp1480
g6
I1
sg7
S'[18/Dec/2015:20:22:29 +0800]'
p1481
sa(dp1482
g6
I1
sg7
S'[18/Dec/2015:21:46:38 +0800]'
p1483
sa(dp1484
g6
I1
sg7
S'[18/Dec/2015:22:09:36 +0800]'
p1485
sa(dp1486
g6
I1
sg7
S'[18/Dec/2015:21:55:21 +0800]'
p1487
sa(dp1488
g6
I1
sg7
S'[18/Dec/2015:22:04:56 +0800]'
p1489
sa(dp1490
g6
I1
sg7
S'[23/Dec/2015:14:56:49 +0800]'
p1491
sa(dp1492
g6
I1
sg7
S'[19/Feb/2016:13:00:56 +0800]'
p1493
sa(dp1494
g6
I1
sg7
S'[18/Dec/2015:22:41:48 +0800]'
p1495
sa(dp1496
g6
I1
sg7
S'[18/Dec/2015:21:55:03 +0800]'
p1497
sa(dp1498
g6
I1
sg7
S'[18/Dec/2015:22:10:00 +0800]'
p1499
sa(dp1500
g6
I1
sg7
S'[18/Dec/2015:20:10:10 +0800]'
p1501
sa(dp1502
g6
I1
sg7
S'[18/Dec/2015:20:09:11 +0800]'
p1503
sa(dp1504
g6
I1
sg7
S'[18/Dec/2015:22:07:21 +0800]'
p1505
sa(dp1506
g6
I1
sg7
S'[18/Dec/2015:21:50:51 +0800]'
p1507
sa(dp1508
g6
I1
sg7
S'[18/Dec/2015:22:21:10 +0800]'
p1509
sa(dp1510
g6
I1
sg7
S'[18/Dec/2015:20:25:21 +0800]'
p1511
sa(dp1512
g6
I1
sg7
S'[19/Dec/2015:13:52:27 +0800]'
p1513
sa(dp1514
g6
I1
sg7
S'[18/Dec/2015:21:55:13 +0800]'
p1515
sa(dp1516
g6
I1
sg7
S'[18/Dec/2015:22:03:09 +0800]'
p1517
sa(dp1518
g6
I1
sg7
S'[18/Dec/2015:20:25:28 +0800]'
p1519
sa(dp1520
g6
I1
sg7
S'[19/Feb/2016:13:14:37 +0800]'
p1521
sa(dp1522
g6
I1
sg7
S'[18/Dec/2015:22:23:35 +0800]'
p1523
sa(dp1524
g6
I1
sg7
S'[19/Dec/2015:13:55:43 +0800]'
p1525
sa(dp1526
g6
I2
sg7
S'[19/Feb/2016:13:00:52 +0800]'
p1527
sa(dp1528
g6
I1
sg7
S'[18/Dec/2015:22:31:54 +0800]'
p1529
sa(dp1530
g6
I1
sg7
S'[18/Dec/2015:22:41:20 +0800]'
p1531
sa(dp1532
g6
I1
sg7
S'[18/Dec/2015:22:10:35 +0800]'
p1533
sa(dp1534
g6
I1
sg7
S'[18/Dec/2015:22:01:57 +0800]'
p1535
sa(dp1536
g6
I1
sg7
S'[19/Dec/2015:13:59:02 +0800]'
p1537
sa(dp1538
g6
I1
sg7
S'[18/Dec/2015:22:19:24 +0800]'
p1539
sa(dp1540
g6
I8
sg7
S'[18/Dec/2015:20:22:08 +0800]'
p1541
sa(dp1542
g6
I1
sg7
S'[18/Dec/2015:22:12:59 +0800]'
p1543
sa(dp1544
g6
I1
sg7
S'[18/Dec/2015:21:56:26 +0800]'
p1545
sa(dp1546
g6
I1
sg7
S'[18/Dec/2015:21:49:39 +0800]'
p1547
sa(dp1548
g6
I2
sg7
S'[19/Feb/2016:13:14:10 +0800]'
p1549
sa(dp1550
g6
I8
sg7
S'[18/Dec/2015:20:22:04 +0800]'
p1551
sa(dp1552
g6
I1
sg7
S'[18/Dec/2015:21:52:39 +0800]'
p1553
sa(dp1554
g6
I1
sg7
S'[18/Dec/2015:20:25:34 +0800]'
p1555
sa(dp1556
g6
I1
sg7
S'[18/Dec/2015:21:59:48 +0800]'
p1557
sa(dp1558
g6
I1
sg7
S'[18/Dec/2015:22:38:17 +0800]'
p1559
sa(dp1560
g6
I1
sg7
S'[18/Dec/2015:22:31:05 +0800]'
p1561
sa(dp1562
g6
I1
sg7
S'[18/Dec/2015:22:12:25 +0800]'
p1563
sa(dp1564
g6
I2
sg7
S'[19/Feb/2016:14:54:48 +0800]'
p1565
sa(dp1566
g6
I1
sg7
S'[18/Dec/2015:22:41:00 +0800]'
p1567
sa(dp1568
g6
I1
sg7
S'[18/Dec/2015:22:43:00 +0800]'
p1569
sa(dp1570
g6
I1
sg7
S'[18/Dec/2015:21:54:20 +0800]'
p1571
sa(dp1572
g6
I2
sg7
S'[19/Feb/2016:14:54:54 +0800]'
p1573
sa(dp1574
g6
I1
sg7
S'[18/Dec/2015:22:23:10 +0800]'
p1575
sa(dp1576
g6
I1
sg7
S'[18/Dec/2015:20:10:34 +0800]'
p1577
sa(dp1578
g6
I1
sg7
S'[18/Dec/2015:22:11:33 +0800]'
p1579
sa(dp1580
g6
I1
sg7
S'[18/Dec/2015:21:53:36 +0800]'
p1581
sa(dp1582
g6
I1
sg7
S'[18/Dec/2015:22:37:30 +0800]'
p1583
sa(dp1584
g6
I1
sg7
S'[18/Dec/2015:20:22:23 +0800]'
p1585
sa(dp1586
g6
I1
sg7
S'[18/Dec/2015:21:50:45 +0800]'
p1587
sa(dp1588
g6
I1
sg7
S'[18/Dec/2015:20:09:03 +0800]'
p1589
sa(dp1590
g6
I1
sg7
S'[18/Dec/2015:22:07:00 +0800]'
p1591
sa(dp1592
g6
I1
sg7
S'[18/Dec/2015:22:00:03 +0800]'
p1593
sa(dp1594
g6
I1
sg7
S'[18/Dec/2015:20:22:17 +0800]'
p1595
sa(dp1596
g6
I1
sg7
S'[18/Dec/2015:20:10:40 +0800]'
p1597
sa(dp1598
g6
I1
sg7
S'[18/Dec/2015:22:09:00 +0800]'
p1599
sa(dp1600
g6
I1
sg7
S'[18/Dec/2015:22:23:00 +0800]'
p1601
sa(dp1602
g6
I1
sg7
S'[18/Dec/2015:22:33:23 +0800]'
p1603
sa(dp1604
g6
I1
sg7
S'[23/Dec/2015:14:57:43 +0800]'
p1605
sa(dp1606
g6
I1
sg7
S'[18/Dec/2015:22:06:54 +0800]'
p1607
sa(dp1608
g6
I1
sg7
S'[18/Dec/2015:20:27:24 +0800]'
p1609
sa(dp1610
g6
I2
sg7
S'[23/Dec/2015:15:03:19 +0800]'
p1611
sa(dp1612
g6
I1
sg7
S'[18/Dec/2015:20:21:59 +0800]'
p1613
sa(dp1614
g6
I1
sg7
S'[18/Dec/2015:20:25:51 +0800]'
p1615
sa(dp1616
g6
I1
sg7
S'[18/Dec/2015:21:56:13 +0800]'
p1617
sa(dp1618
g6
I1
sg7
S'[18/Dec/2015:21:50:57 +0800]'
p1619
sa(dp1620
g6
I1
sg7
S'[18/Dec/2015:20:25:11 +0800]'
p1621
sa(dp1622
g6
I1
sg7
S'[18/Dec/2015:22:10:10 +0800]'
p1623
sa(dp1624
g6
I1
sg7
S'[18/Dec/2015:22:28:42 +0800]'
p1625
sa(dp1626
g6
I1
sg7
S'[18/Dec/2015:21:58:06 +0800]'
p1627
sa(dp1628
g6
I1
sg7
S'[18/Dec/2015:20:26:54 +0800]'
p1629
sa(dp1630
g6
I1
sg7
S'[18/Dec/2015:22:39:53 +0800]'
p1631
sa(dp1632
g6
I1
sg7
S'[18/Dec/2015:20:08:24 +0800]'
p1633
sa(dp1634
g6
I2
sg7
S'[19/Feb/2016:14:52:21 +0800]'
p1635
sa(dp1636
g6
I1
sg7
S'[18/Dec/2015:21:55:49 +0800]'
p1637
sa(dp1638
g6
I1
sg7
S'[18/Dec/2015:22:20:47 +0800]'
p1639
sa(dp1640
g6
I1
sg7
S'[18/Dec/2015:21:54:56 +0800]'
p1641
sa(dp1642
g6
I1
sg7
S'[18/Dec/2015:21:58:44 +0800]'
p1643
sa(dp1644
g6
I1
sg7
S'[18/Dec/2015:21:56:01 +0800]'
p1645
sa(dp1646
g6
I1
sg7
S'[19/Dec/2015:13:51:39 +0800]'
p1647
sa(dp1648
g6
I1
sg7
S'[18/Dec/2015:20:24:00 +0800]'
p1649
sa(dp1650
g6
I1
sg7
S'[18/Dec/2015:21:56:51 +0800]'
p1651
sa(dp1652
g6
I1
sg7
S'[18/Dec/2015:22:04:03 +0800]'
p1653
sa(dp1654
g6
I1
sg7
S'[18/Dec/2015:22:14:49 +0800]'
p1655
sa(dp1656
g6
I1
sg7
S'[18/Dec/2015:22:21:00 +0800]'
p1657
sa(dp1658
g6
I1
sg7
S'[18/Dec/2015:21:47:18 +0800]'
p1659
sa(dp1660
g6
I1
sg7
S'[19/Dec/2015:13:51:57 +0800]'
p1661
sa(dp1662
g6
I1
sg7
S'[18/Dec/2015:21:51:09 +0800]'
p1663
sa(dp1664
g6
I2
sg7
S'[19/Feb/2016:14:54:47 +0800]'
p1665
sa(dp1666
g6
I1
sg7
S'[18/Dec/2015:20:23:23 +0800]'
p1667
sa(dp1668
g6
I1
sg7
S'[18/Dec/2015:21:52:03 +0800]'
p1669
sa(dp1670
g6
I1
sg7
S'[18/Dec/2015:22:36:58 +0800]'
p1671
sa(dp1672
g6
I1
sg7
S'[18/Dec/2015:21:50:27 +0800]'
p1673
sa(dp1674
g6
I1
sg7
S'[19/Dec/2015:13:58:49 +0800]'
p1675
sa(dp1676
g6
I1
sg7
S'[18/Dec/2015:22:03:51 +0800]'
p1677
sa(dp1678
g6
I1
sg7
S'[19/Dec/2015:13:55:33 +0800]'
p1679
sa(dp1680
g6
I6
sg7
S'[18/Dec/2015:20:08:53 +0800]'
p1681
sa(dp1682
g6
I1
sg7
S'[18/Dec/2015:22:36:16 +0800]'
p1683
sa(dp1684
g6
I6
sg7
S'[18/Dec/2015:20:09:02 +0800]'
p1685
sa(dp1686
g6
I1
sg7
S'[18/Dec/2015:20:22:05 +0800]'
p1687
sa(dp1688
g6
I1
sg7
S'[18/Dec/2015:22:14:19 +0800]'
p1689
sa(dp1690
g6
I1
sg7
S'[18/Dec/2015:21:46:57 +0800]'
p1691
sa(dp1692
g6
I1
sg7
S'[18/Dec/2015:20:08:59 +0800]'
p1693
sa(dp1694
g6
I1
sg7
S'[18/Dec/2015:20:24:55 +0800]'
p1695
sa(dp1696
g6
I1
sg7
S'[18/Dec/2015:21:56:07 +0800]'
p1697
sa(dp1698
g6
I1
sg7
S'[18/Dec/2015:22:34:06 +0800]'
p1699
sa(dp1700
g6
I2
sg7
S'[19/Feb/2016:13:15:02 +0800]'
p1701
sa(dp1702
g6
I1
sg7
S'[18/Dec/2015:22:31:42 +0800]'
p1703
sa(dp1704
g6
I1
sg7
S'[18/Dec/2015:20:09:23 +0800]'
p1705
sa(dp1706
g6
I1
sg7
S'[18/Dec/2015:20:28:03 +0800]'
p1707
sa(dp1708
g6
I1
sg7
S'[18/Dec/2015:22:08:23 +0800]'
p1709
sa(dp1710
g6
I1
sg7
S'[18/Dec/2015:21:59:23 +0800]'
p1711
sa(dp1712
g6
I1
sg7
S'[18/Dec/2015:22:24:48 +0800]'
p1713
sa(dp1714
g6
I1
sg7
S'[19/Dec/2015:13:51:45 +0800]'
p1715
sa(dp1716
g6
I1
sg7
S'[18/Dec/2015:22:15:36 +0800]'
p1717
sa(dp1718
g6
I1
sg7
S'[18/Dec/2015:22:47:47 +0800]'
p1719
sa(dp1720
g6
I1
sg7
S'[18/Dec/2015:22:32:42 +0800]'
p1721
sa(dp1722
g6
I1
sg7
S'[18/Dec/2015:21:47:23 +0800]'
p1723
sa(dp1724
g6
I2
sg7
S'[19/Feb/2016:14:51:04 +0800]'
p1725
sa(dp1726
g6
I1
sg7
S'[18/Dec/2015:21:54:51 +0800]'
p1727
sa(dp1728
g6
I1
sg7
S'[18/Dec/2015:20:24:50 +0800]'
p1729
sa(dp1730
g6
I1
sg7
S'[18/Dec/2015:22:43:36 +0800]'
p1731
sa(dp1732
g6
I1
sg7
S'[18/Dec/2015:22:45:12 +0800]'
p1733
sa(dp1734
g6
I1
sg7
S'[19/Dec/2015:13:52:15 +0800]'
p1735
sa(dp1736
g6
I1
sg7
S'[18/Dec/2015:20:22:50 +0800]'
p1737
sa(dp1738
g6
I1
sg7
S'[18/Dec/2015:21:47:10 +0800]'
p1739
sa(dp1740
g6
I1
sg7
S'[18/Dec/2015:20:28:28 +0800]'
p1741
sa(dp1742
g6
I9
sg7
S'[19/Feb/2016:14:52:22 +0800]'
p1743
sa(dp1744
g6
I1
sg7
S'[18/Dec/2015:20:25:58 +0800]'
p1745
sa(dp1746
g6
I1
sg7
S'[18/Dec/2015:20:09:51 +0800]'
p1747
sa(dp1748
g6
I1
sg7
S'[18/Dec/2015:22:46:24 +0800]'
p1749
sa(dp1750
g6
I1
sg7
S'[18/Dec/2015:22:12:53 +0800]'
p1751
sa(dp1752
g6
I1
sg7
S'[18/Dec/2015:22:18:05 +0800]'
p1753
sa(dp1754
g6
I1
sg7
S'[18/Dec/2015:21:46:04 +0800]'
p1755
sa(dp1756
g6
I1
sg7
S'[18/Dec/2015:22:42:24 +0800]'
p1757
sa(dp1758
g6
I1
sg7
S'[18/Dec/2015:22:02:57 +0800]'
p1759
sa(dp1760
g6
I2
sg7
S'[19/Feb/2016:13:13:00 +0800]'
p1761
sa(dp1762
g6
I1
sg7
S'[18/Dec/2015:20:09:35 +0800]'
p1763
sa(dp1764
g6
I1
sg7
S'[19/Dec/2015:13:52:45 +0800]'
p1765
sa(dp1766
g6
I1
sg7
S'[18/Dec/2015:21:48:45 +0800]'
p1767
sa(dp1768
g6
I1
sg7
S'[19/Feb/2016:14:52:33 +0800]'
p1769
sa(dp1770
g6
I2
sg7
S'[23/Dec/2015:15:03:22 +0800]'
p1771
sa(dp1772
g6
I1
sg7
S'[18/Dec/2015:21:48:33 +0800]'
p1773
sa(dp1774
g6
I1
sg7
S'[19/Dec/2015:13:52:33 +0800]'
p1775
sa(dp1776
g6
I1
sg7
S'[18/Dec/2015:22:39:23 +0800]'
p1777
sa(dp1778
g6
I1
sg7
S'[18/Dec/2015:21:53:03 +0800]'
p1779
sa(dp1780
g6
I1
sg7
S'[18/Dec/2015:21:46:50 +0800]'
p1781
sa(dp1782
g6
I1
sg7
S'[18/Dec/2015:22:00:54 +0800]'
p1783
sa(dp1784
g6
I1
sg7
S'[18/Dec/2015:22:03:14 +0800]'
p1785
sa(dp1786
g6
I1
sg7
S'[18/Dec/2015:21:48:39 +0800]'
p1787
sa(dp1788
g6
I1
sg7
S'[18/Dec/2015:22:01:33 +0800]'
p1789
sa(dp1790
g6
I1
sg7
S'[18/Dec/2015:20:27:35 +0800]'
p1791
sa(dp1792
g6
I1
sg7
S'[18/Dec/2015:21:53:10 +0800]'
p1793
sa(dp1794
g6
I1
sg7
S'[18/Dec/2015:22:17:47 +0800]'
p1795
sa(dp1796
g6
I1
sg7
S'[18/Dec/2015:21:45:45 +0800]'
p1797
sa(dp1798
g6
I1
sg7
S'[18/Dec/2015:22:15:25 +0800]'
p1799
sa(dp1800
g6
I1
sg7
S'[18/Dec/2015:22:47:46 +0800]'
p1801
sa(dp1802
g6
I1
sg7
S'[18/Dec/2015:22:06:07 +0800]'
p1803
sa(dp1804
g6
I1
sg7
S'[19/Dec/2015:13:53:03 +0800]'
p1805
sa(dp1806
g6
I1
sg7
S'[18/Dec/2015:20:28:22 +0800]'
p1807
sa(dp1808
g6
I1
sg7
S'[18/Dec/2015:22:01:15 +0800]'
p1809
sa(dp1810
g6
I1
sg7
S'[18/Dec/2015:22:01:45 +0800]'
p1811
sa(dp1812
g6
I1
sg7
S'[18/Dec/2015:21:46:17 +0800]'
p1813
sa(dp1814
g6
I1
sg7
S'[18/Dec/2015:21:52:51 +0800]'
p1815
sa(dp1816
g6
I1
sg7
S'[18/Dec/2015:21:59:30 +0800]'
p1817
sa(dp1818
g6
I1
sg7
S'[18/Dec/2015:22:47:40 +0800]'
p1819
sa(dp1820
g6
I1
sg7
S'[18/Dec/2015:21:51:27 +0800]'
p1821
sa(dp1822
g6
I1
sg7
S'[18/Dec/2015:21:46:10 +0800]'
p1823
sa(dp1824
g6
I1
sg7
S'[18/Dec/2015:22:30:06 +0800]'
p1825
sa(dp1826
g6
I1
sg7
S'[18/Dec/2015:22:10:41 +0800]'
p1827
sa(dp1828
g6
I1
sg7
S'[18/Dec/2015:22:29:42 +0800]'
p1829
sa(dp1830
g6
I1
sg7
S'[18/Dec/2015:22:40:48 +0800]'
p1831
sa(dp1832
g6
I1
sg7
S'[18/Dec/2015:21:52:21 +0800]'
p1833
sa(dp1834
g6
I1
sg7
S'[18/Dec/2015:21:54:26 +0800]'
p1835
sa(dp1836
g6
I1
sg7
S'[18/Dec/2015:22:26:14 +0800]'
p1837
sa(dp1838
g6
I2
sg7
S'[19/Feb/2016:13:10:07 +0800]'
p1839
sa(dp1840
g6
I1
sg7
S'[19/Dec/2015:13:59:00 +0800]'
p1841
sa(dp1842
g6
I1
sg7
S'[18/Dec/2015:21:54:13 +0800]'
p1843
sa(dp1844
g6
I2
sg7
S'[19/Feb/2016:13:14:33 +0800]'
p1845
sa(dp1846
g6
I1
sg7
S'[18/Dec/2015:21:58:20 +0800]'
p1847
sa(dp1848
g6
I1
sg7
S'[18/Dec/2015:22:44:00 +0800]'
p1849
sa(dp1850
g6
I1
sg7
S'[18/Dec/2015:22:05:03 +0800]'
p1851
sa(dp1852
g6
I1
sg7
S'[19/Dec/2015:13:54:51 +0800]'
p1853
sa(dp1854
g6
I1
sg7
S'[18/Dec/2015:22:38:07 +0800]'
p1855
sa(dp1856
g6
I1
sg7
S'[18/Dec/2015:21:59:42 +0800]'
p1857
sa(dp1858
g6
I1
sg7
S'[18/Dec/2015:22:01:26 +0800]'
p1859
sa(dp1860
g6
I1
sg7
S'[18/Dec/2015:20:25:52 +0800]'
p1861
sa(dp1862
g6
I1
sg7
S'[18/Dec/2015:22:45:00 +0800]'
p1863
sa(dp1864
g6
I1
sg7
S'[18/Dec/2015:22:01:21 +0800]'
p1865
sa(dp1866
g6
I1
sg7
S'[18/Dec/2015:21:47:50 +0800]'
p1867
sa(dp1868
g6
I2
sg7
S'[19/Feb/2016:13:13:03 +0800]'
p1869
sa(dp1870
g6
I1
sg7
S'[19/Dec/2015:13:55:03 +0800]'
p1871
sa(dp1872
g6
I1
sg7
S'[19/Dec/2015:13:53:09 +0800]'
p1873
sa(dp1874
g6
I1
sg7
S'[18/Dec/2015:22:42:36 +0800]'
p1875
sa(dp1876
g6
I1
sg7
S'[18/Dec/2015:22:40:04 +0800]'
p1877
sa(dp1878
g6
I1
sg7
S'[18/Dec/2015:22:16:00 +0800]'
p1879
sa(dp1880
g6
I1
sg7
S'[18/Dec/2015:22:11:20 +0800]'
p1881
sa(dp1882
g6
I1
sg7
S'[18/Dec/2015:22:42:00 +0800]'
p1883
sa(dp1884
g6
I1
sg7
S'[18/Dec/2015:22:25:10 +0800]'
p1885
sa(dp1886
g6
I1
sg7
S'[18/Dec/2015:21:48:27 +0800]'
p1887
sa(dp1888
g6
I1
sg7
S'[18/Dec/2015:22:16:53 +0800]'
p1889
sa(dp1890
g6
I1
sg7
S'[18/Dec/2015:20:26:28 +0800]'
p1891
sa(dp1892
g6
I2
sg7
S'[19/Feb/2016:14:54:22 +0800]'
p1893
sa(dp1894
g6
I1
sg7
S'[18/Dec/2015:21:45:32 +0800]'
p1895
sa(dp1896
g6
I1
sg7
S'[19/Dec/2015:13:59:06 +0800]'
p1897
sa(dp1898
g6
I1
sg7
S'[18/Dec/2015:22:46:44 +0800]'
p1899
sa(dp1900
g6
I1
sg7
S'[18/Dec/2015:22:02:03 +0800]'
p1901
sa(dp1902
g6
I1
sg7
S'[18/Dec/2015:22:14:06 +0800]'
p1903
sa(dp1904
g6
I1
sg7
S'[18/Dec/2015:22:29:54 +0800]'
p1905
sa(dp1906
g6
I1
sg7
S'[19/Dec/2015:13:58:45 +0800]'
p1907
sa(dp1908
g6
I1
sg7
S'[18/Dec/2015:21:56:39 +0800]'
p1909
sa(dp1910
g6
I1
sg7
S'[18/Dec/2015:22:22:48 +0800]'
p1911
sa(dp1912
g6
I1
sg7
S'[18/Dec/2015:22:16:47 +0800]'
p1913
sa(dp1914
g6
I2
sg7
S'[19/Feb/2016:14:56:30 +0800]'
p1915
sa(dp1916
g6
I1
sg7
S'[18/Dec/2015:22:28:11 +0800]'
p1917
sa(dp1918
g6
I1
sg7
S'[18/Dec/2015:21:51:03 +0800]'
p1919
sa(dp1920
g6
I1
sg7
S'[18/Dec/2015:21:48:02 +0800]'
p1921
sa(dp1922
g6
I1
sg7
S'[19/Feb/2016:13:14:36 +0800]'
p1923
sa(dp1924
g6
I1
sg7
S'[19/Dec/2015:13:54:46 +0800]'
p1925
sa(dp1926
g6
I1
sg7
S'[18/Dec/2015:20:24:30 +0800]'
p1927
sa(dp1928
g6
I1
sg7
S'[18/Dec/2015:22:02:43 +0800]'
p1929
sa(dp1930
g6
I2
sg7
S'[19/Feb/2016:14:46:28 +0800]'
p1931
sa(dp1932
g6
I1
sg7
S'[18/Dec/2015:22:35:53 +0800]'
p1933
sa(dp1934
g6
I1
sg7
S'[18/Dec/2015:22:45:36 +0800]'
p1935
sa(dp1936
g6
I1
sg7
S'[18/Dec/2015:22:29:06 +0800]'
p1937
sa(dp1938
g6
I1
sg7
S'[18/Dec/2015:22:27:18 +0800]'
p1939
sa(dp1940
g6
I1
sg7
S'[18/Dec/2015:22:41:10 +0800]'
p1941
sa(dp1942
g6
I1
sg7
S'[18/Dec/2015:22:05:09 +0800]'
p1943
sa(dp1944
g6
I1
sg7
S'[18/Dec/2015:22:27:06 +0800]'
p1945
sa(dp1946
g6
I1
sg7
S'[18/Dec/2015:22:44:24 +0800]'
p1947
sa(dp1948
g6
I1
sg7
S'[18/Dec/2015:22:03:45 +0800]'
p1949
sa(dp1950
g6
I1
sg7
S'[18/Dec/2015:20:09:29 +0800]'
p1951
sa(dp1952
g6
I1
sg7
S'[18/Dec/2015:22:03:39 +0800]'
p1953
sa(dp1954
g6
I1
sg7
S'[18/Dec/2015:22:26:24 +0800]'
p1955
sa(dp1956
g6
I1
sg7
S'[18/Dec/2015:22:02:30 +0800]'
p1957
sa(dp1958
g6
I1
sg7
S'[18/Dec/2015:21:58:38 +0800]'
p1959
sa(dp1960
g6
I1
sg7
S'[18/Dec/2015:22:12:16 +0800]'
p1961
sa(dp1962
g6
I1
sg7
S'[18/Dec/2015:21:56:45 +0800]'
p1963
sa(dp1964
g6
I1
sg7
S'[18/Dec/2015:22:04:42 +0800]'
p1965
sa(dp1966
g6
I1
sg7
S'[18/Dec/2015:22:05:31 +0800]'
p1967
sa(dp1968
g6
I1
sg7
S'[18/Dec/2015:22:37:42 +0800]'
p1969
sa(dp1970
g6
I2
sg7
S'[19/Feb/2016:13:12:54 +0800]'
p1971
sa(dp1972
g6
I1
sg7
S'[18/Dec/2015:22:21:29 +0800]'
p1973
sa(dp1974
g6
I2
sg7
S'[19/Feb/2016:13:15:52 +0800]'
p1975
sa(dp1976
g6
I1
sg7
S'[18/Dec/2015:22:00:21 +0800]'
p1977
sa(dp1978
g6
I1
sg7
S'[18/Dec/2015:22:43:48 +0800]'
p1979
sa(dp1980
g6
I2
sg7
S'[23/Dec/2015:14:58:53 +0800]'
p1981
sa(dp1982
g6
I1
sg7
S'[18/Dec/2015:22:34:31 +0800]'
p1983
sa(dp1984
g6
I1
sg7
S'[18/Dec/2015:20:11:13 +0800]'
p1985
sa(dp1986
g6
I1
sg7
S'[18/Dec/2015:22:03:03 +0800]'
p1987
sa(dp1988
g6
I1
sg7
S'[18/Dec/2015:22:01:51 +0800]'
p1989
sa(dp1990
g6
I1
sg7
S'[18/Dec/2015:22:39:33 +0800]'
p1991
sa(dp1992
g6
I1
sg7
S'[19/Dec/2015:13:52:51 +0800]'
p1993
sa(dp1994
g6
I1
sg7
S'[18/Dec/2015:21:45:50 +0800]'
p1995
sa(dp1996
g6
I1
sg7
S'[18/Dec/2015:21:56:33 +0800]'
p1997
sa(dp1998
g6
I1
sg7
S'[18/Dec/2015:21:52:09 +0800]'
p1999
sa(dp2000
g6
I1
sg7
S'[18/Dec/2015:21:53:49 +0800]'
p2001
sa(dp2002
g6
I1
sg7
S'[18/Dec/2015:21:48:15 +0800]'
p2003
sa(dp2004
g6
I1
sg7
S'[18/Dec/2015:21:49:33 +0800]'
p2005
sa(dp2006
g6
I1
sg7
S'[18/Dec/2015:22:36:52 +0800]'
p2007
sa(dp2008
g6
I1
sg7
S'[18/Dec/2015:22:30:30 +0800]'
p2009
sa(dp2010
g6
I1
sg7
S'[18/Dec/2015:20:09:40 +0800]'
p2011
sa(dp2012
g6
I1
sg7
S'[18/Dec/2015:21:57:03 +0800]'
p2013
sa(dp2014
g6
I1
sg7
S'[18/Dec/2015:22:24:12 +0800]'
p2015
sa(dp2016
g6
I1
sg7
S'[18/Dec/2015:22:17:24 +0800]'
p2017
sa(dp2018
g6
I1
sg7
S'[18/Dec/2015:21:59:08 +0800]'
p2019
sa(dp2020
g6
I1
sg7
S'[18/Dec/2015:22:25:30 +0800]'
p2021
sa(dp2022
g6
I2
sg7
S'[23/Dec/2015:15:04:07 +0800]'
p2023
sa(dp2024
g6
I1
sg7
S'[18/Dec/2015:21:57:59 +0800]'
p2025
sa(dp2026
g6
I1
sg7
S'[18/Dec/2015:21:51:57 +0800]'
p2027
sa(dp2028
g6
I1
sg7
S'[18/Dec/2015:22:22:26 +0800]'
p2029
sa(dp2030
g6
I1
sg7
S'[18/Dec/2015:21:58:32 +0800]'
p2031
sa(dp2032
g6
I1
sg7
S'[18/Dec/2015:21:53:55 +0800]'
p2033
sa(dp2034
g6
I1
sg7
S'[18/Dec/2015:22:05:43 +0800]'
p2035
sa(dp2036
g6
I1
sg7
S'[18/Dec/2015:22:16:20 +0800]'
p2037
sa(dp2038
g6
I7
sg7
S'[18/Dec/2015:20:25:53 +0800]'
p2039
sa(dp2040
g6
I1
sg7
S'[19/Dec/2015:13:52:21 +0800]'
p2041
sa(dp2042
g6
I1
sg7
S'[18/Dec/2015:22:19:36 +0800]'
p2043
sa(dp2044
g6
I1
sg7
S'[19/Dec/2015:13:54:13 +0800]'
p2045
sa(dp2046
g6
I1
sg7
S'[18/Dec/2015:22:30:42 +0800]'
p2047
sa(dp2048
g6
I1
sg7
S'[18/Dec/2015:21:49:21 +0800]'
p2049
sa(dp2050
g6
I1
sg7
S'[18/Dec/2015:22:05:14 +0800]'
p2051
sa(dp2052
g6
I1
sg7
S'[18/Dec/2015:21:56:57 +0800]'
p2053
sa(dp2054
g6
I1
sg7
S'[18/Dec/2015:22:25:00 +0800]'
p2055
sa(dp2056
g6
I1
sg7
S'[18/Dec/2015:21:55:09 +0800]'
p2057
sa(dp2058
g6
I1
sg7
S'[18/Dec/2015:20:10:28 +0800]'
p2059
sa(dp2060
g6
I1
sg7
S'[18/Dec/2015:22:16:38 +0800]'
p2061
sa(dp2062
g6
I1
sg7
S'[18/Dec/2015:21:59:14 +0800]'
p2063
sa(dp2064
g6
I1
sg7
S'[18/Dec/2015:22:42:48 +0800]'
p2065
sa(dp2066
g6
I1
sg7
S'[19/Dec/2015:13:55:48 +0800]'
p2067
sa(dp2068
g6
I1
sg7
S'[18/Dec/2015:22:00:28 +0800]'
p2069
sa(dp2070
g6
I1
sg7
S'[18/Dec/2015:21:51:15 +0800]'
p2071
sa(dp2072
g6
I1
sg7
S'[18/Dec/2015:21:48:09 +0800]'
p2073
sa(dp2074
g6
I1
sg7
S'[18/Dec/2015:20:11:07 +0800]'
p2075
sa(dp2076
g6
I1
sg7
S'[18/Dec/2015:22:19:00 +0800]'
p2077
sa(dp2078
g6
I1
sg7
S'[18/Dec/2015:21:54:32 +0800]'
p2079
sa(dp2080
g6
I1
sg7
S'[18/Dec/2015:22:40:14 +0800]'
p2081
sa(dp2082
g6
I1
sg7
S'[18/Dec/2015:22:02:10 +0800]'
p2083
sa(dp2084
g6
I1
sg7
S'[18/Dec/2015:22:24:24 +0800]'
p2085
sa(dp2086
g6
I1
sg7
S'[18/Dec/2015:22:20:00 +0800]'
p2087
sa(dp2088
g6
I2
sg7
S'[19/Feb/2016:11:52:46 +0800]'
p2089
sa(dp2090
g6
I1
sg7
S'[18/Dec/2015:22:40:36 +0800]'
p2091
sa(dp2092
g6
I1
sg7
S'[18/Dec/2015:21:56:19 +0800]'
p2093
sa(dp2094
g6
I1
sg7
S'[18/Dec/2015:22:09:24 +0800]'
p2095
sa(dp2096
g6
I1
sg7
S'[18/Dec/2015:21:51:51 +0800]'
p2097
sa(dp2098
g6
I2
sg7
S'[19/Feb/2016:13:14:31 +0800]'
p2099
sa(dp2100
g6
I1
sg7
S'[18/Dec/2015:22:03:27 +0800]'
p2101
sa(dp2102
g6
I2
sg7
S'[24/Dec/2015:22:48:35 +0800]'
p2103
sa(dp2104
g6
I1
sg7
S'[18/Dec/2015:21:53:17 +0800]'
p2105
sa(dp2106
g6
I4
sg7
S'[19/Feb/2016:14:56:06 +0800]'
p2107
sa(dp2108
g6
I1
sg7
S'[18/Dec/2015:22:03:57 +0800]'
p2109
sa(dp2110
g6
I1
sg7
S'[18/Dec/2015:21:50:33 +0800]'
p2111
sa(dp2112
g6
I1
sg7
S'[18/Dec/2015:22:01:38 +0800]'
p2113
sa(dp2114
g6
I2
sg7
S'[19/Feb/2016:11:49:23 +0800]'
p2115
sa(dp2116
g6
I1
sg7
S'[18/Dec/2015:22:17:59 +0800]'
p2117
sa(dp2118
g6
I1
sg7
S'[18/Dec/2015:22:23:47 +0800]'
p2119
sa(dp2120
g6
I1
sg7
S'[19/Dec/2015:13:59:04 +0800]'
p2121
sa(dp2122
g6
I1
sg7
S'[18/Dec/2015:22:47:14 +0800]'
p2123
sa(dp2124
g6
I1
sg7
S'[18/Dec/2015:21:45:18 +0800]'
p2125
sa(dp2126
g6
I1
sg7
S'[18/Dec/2015:22:15:47 +0800]'
p2127
sa(dp2128
g6
I2
sg7
S'[19/Feb/2016:14:52:15 +0800]'
p2129
sa(dp2130
g6
I1
sg7
S'[18/Dec/2015:20:26:34 +0800]'
p2131
sa(dp2132
g6
I1
sg7
S'[18/Dec/2015:22:04:29 +0800]'
p2133
sa(dp2134
g6
I1
sg7
S'[18/Dec/2015:21:46:23 +0800]'
p2135
sa(dp2136
g6
I1
sg7
S'[18/Dec/2015:20:26:22 +0800]'
p2137
sa(dp2138
g6
I1
sg7
S'[18/Dec/2015:22:32:14 +0800]'
p2139
sa(dp2140
g6
I1
sg7
S'[18/Dec/2015:22:47:45 +0800]'
p2141
sa(dp2142
g6
I1
sg7
S'[19/Feb/2016:14:53:32 +0800]'
p2143
sa(dp2144
g6
I1
sg7
S'[18/Dec/2015:22:04:35 +0800]'
p2145
sa(dp2146
g6
I2
sg7
S'[19/Feb/2016:14:51:33 +0800]'
p2147
sa(dp2148
g6
I1
sg7
S'[18/Dec/2015:22:22:10 +0800]'
p2149
sa(dp2150
g6
I1
sg7
S'[18/Dec/2015:21:53:30 +0800]'
p2151
sa(dp2152
g6
I1
sg7
S'[18/Dec/2015:20:10:47 +0800]'
p2153
sa(dp2154
g6
I1
sg7
S'[18/Dec/2015:22:32:05 +0800]'
p2155
sa(dp2156
g6
I1
sg7
S'[19/Dec/2015:13:58:33 +0800]'
p2157
sa(dp2158
g6
I2
sg7
S'[19/Feb/2016:14:51:35 +0800]'
p2159
sa(dp2160
g6
I1
sg7
S'[18/Dec/2015:22:46:00 +0800]'
p2161
sa(dp2162
g6
I1
sg7
S'[18/Dec/2015:22:33:05 +0800]'
p2163
sa(dp2164
g6
I1
sg7
S'[18/Dec/2015:20:25:16 +0800]'
p2165
sa(dp2166
g6
I1
sg7
S'[18/Dec/2015:22:06:29 +0800]'
p2167
sa(dp2168
g6
I1
sg7
S'[18/Dec/2015:22:17:36 +0800]'
p2169
sa(dp2170
g6
I1
sg7
S'[18/Dec/2015:21:52:15 +0800]'
p2171
sa(dp2172
g6
I1
sg7
S'[18/Dec/2015:22:30:54 +0800]'
p2173
sa(dp2174
g6
I1
sg7
S'[18/Dec/2015:22:32:54 +0800]'
p2175
sa(dp2176
g6
I1
sg7
S'[18/Dec/2015:22:08:38 +0800]'
p2177
sa(dp2178
g6
I1
sg7
S'[18/Dec/2015:22:22:36 +0800]'
p2179
sa(dp2180
g6
I1
sg7
S'[18/Dec/2015:22:46:36 +0800]'
p2181
sa(dp2182
g6
I1
sg7
S'[18/Dec/2015:21:53:23 +0800]'
p2183
sa(dp2184
g6
I1
sg7
S'[18/Dec/2015:22:45:48 +0800]'
p2185
sa(dp2186
g6
I1
sg7
S'[18/Dec/2015:22:26:05 +0800]'
p2187
sa(dp2188
g6
I2
sg7
S'[19/Feb/2016:13:15:00 +0800]'
p2189
sa(dp2190
g6
I1
sg7
S'[18/Dec/2015:22:33:16 +0800]'
p2191
sa(dp2192
g6
I1
sg7
S'[19/Dec/2015:13:53:42 +0800]'
p2193
sa(dp2194
g6
I1
sg7
S'[18/Dec/2015:20:25:01 +0800]'
p2195
sa(dp2196
g6
I1
sg7
S'[18/Dec/2015:21:47:37 +0800]'
p2197
sa(dp2198
g6
I1
sg7
S'[19/Feb/2016:13:00:57 +0800]'
p2199
sa(dp2200
g6
I1
sg7
S'[18/Dec/2015:20:08:22 +0800]'
p2201
sa(dp2202
g6
I2
sg7
S'[19/Feb/2016:13:09:18 +0800]'
p2203
sa(dp2204
g6
I1
sg7
S'[18/Dec/2015:22:42:12 +0800]'
p2205
sa(dp2206
g6
I1
sg7
S'[18/Dec/2015:22:29:18 +0800]'
p2207
sa(dp2208
g6
I1
sg7
S'[18/Dec/2015:22:47:24 +0800]'
p2209
sa(dp2210
g6
I1
sg7
S'[18/Dec/2015:21:52:27 +0800]'
p2211
sa(dp2212
g6
I1
sg7
S'[18/Dec/2015:22:03:21 +0800]'
p2213
sa(dp2214
g6
I1
sg7
S'[18/Dec/2015:22:37:18 +0800]'
p2215
sa(dp2216
g6
I1
sg7
S'[18/Dec/2015:20:08:26 +0800]'
p2217
sa(dp2218
g6
I1
sg7
S'[19/Dec/2015:13:52:03 +0800]'
p2219
sa(dp2220
g6
I1
sg7
S'[18/Dec/2015:22:03:33 +0800]'
p2221
sa(dp2222
g6
I1
sg7
S'[18/Dec/2015:20:09:45 +0800]'
p2223
sa(dp2224
g6
I1
sg7
S'[18/Dec/2015:21:47:30 +0800]'
p2225
sa(dp2226
g6
I1
sg7
S'[18/Dec/2015:21:55:38 +0800]'
p2227
sa(dp2228
g6
I1
sg7
S'[18/Dec/2015:22:29:30 +0800]'
p2229
sa(dp2230
g6
I1
sg7
S'[18/Dec/2015:21:48:57 +0800]'
p2231
sa(dp2232
g6
I1
sg7
S'[18/Dec/2015:22:38:49 +0800]'
p2233
sa(dp2234
g6
I1
sg7
S'[18/Dec/2015:22:47:04 +0800]'
p2235
sa(dp2236
g6
I1
sg7
S'[18/Dec/2015:22:36:25 +0800]'
p2237
sa(dp2238
g6
I1
sg7
S'[18/Dec/2015:21:55:44 +0800]'
p2239
sa(dp2240
g6
I1
sg7
S'[18/Dec/2015:22:24:02 +0800]'
p2241
sa(dp2242
g6
I1
sg7
S'[18/Dec/2015:22:28:54 +0800]'
p2243
sa(dp2244
g6
I1
sg7
S'[18/Dec/2015:20:28:34 +0800]'
p2245
sa(dp2246
g6
I1
sg7
S'[19/Dec/2015:13:55:09 +0800]'
p2247
sa(dp2248
g6
I1
sg7
S'[18/Dec/2015:20:23:53 +0800]'
p2249
sa(dp2250
g6
I1
sg7
S'[19/Feb/2016:13:16:39 +0800]'
p2251
sa(dp2252
g6
I2
sg7
S'[19/Feb/2016:13:10:01 +0800]'
p2253
sa(dp2254
g6
I1
sg7
S'[18/Dec/2015:22:21:19 +0800]'
p2255
sa(dp2256
g6
I1
sg7
S'[18/Dec/2015:22:17:02 +0800]'
p2257
sa(dp2258
g6
I1
sg7
S'[18/Dec/2015:20:22:55 +0800]'
p2259
sa(dp2260
g6
I1
sg7
S'[18/Dec/2015:20:23:29 +0800]'
p2261
sa(dp2262
g6
I1
sg7
S'[18/Dec/2015:22:19:12 +0800]'
p2263
sa(dp2264
g6
I1
sg7
S'[18/Dec/2015:22:22:00 +0800]'
p2265
sa(dp2266
g6
I1
sg7
S'[19/Dec/2015:13:54:36 +0800]'
p2267
sa(dp2268
g6
I1
sg7
S'[19/Dec/2015:13:53:21 +0800]'
p2269
sa(dp2270
g6
I1
sg7
S'[18/Dec/2015:22:05:25 +0800]'
p2271
sa(dp2272
g6
I1
sg7
S'[18/Dec/2015:21:45:39 +0800]'
p2273
sa(dp2274
g6
I1
sg7
S'[18/Dec/2015:21:47:45 +0800]'
p2275
sa(dp2276
g6
I2
sg7
S'[19/Feb/2016:13:15:59 +0800]'
p2277
sa(dp2278
g6
I2
sg7
S'[19/Feb/2016:14:45:31 +0800]'
p2279
sa(dp2280
g6
I1
sg7
S'[18/Dec/2015:21:55:27 +0800]'
p2281
sa(dp2282
g6
I1
sg7
S'[18/Dec/2015:21:55:55 +0800]'
p2283
sa(dp2284
g6
I1
sg7
S'[19/Dec/2015:13:52:57 +0800]'
p2285
sa(dp2286
g6
I1
sg7
S'[18/Dec/2015:22:46:54 +0800]'
p2287
sa(dp2288
g6
I1
sg7
S'[18/Dec/2015:21:59:57 +0800]'
p2289
sa(dp2290
g6
I1
sg7
S'[18/Dec/2015:22:30:18 +0800]'
p2291
sa(dp2292
g6
I1
sg7
S'[19/Dec/2015:13:51:51 +0800]'
p2293
sa(dp2294
g6
I1
sg7
S'[18/Dec/2015:20:08:37 +0800]'
p2295
sa(dp2296
g6
I1
sg7
S'[18/Dec/2015:21:57:09 +0800]'
p2297
sa(dp2298
g6
I1
sg7
S'[18/Dec/2015:20:23:01 +0800]'
p2299
sa(dp2300
g6
I1
sg7
S'[18/Dec/2015:20:23:11 +0800]'
p2301
sa(dp2302
g6
I1
sg7
S'[18/Dec/2015:22:18:14 +0800]'
p2303
sa(dp2304
g6
I1
sg7
S'[18/Dec/2015:21:50:15 +0800]'
p2305
sa(dp2306
g6
I1
sg7
S'[18/Dec/2015:21:58:56 +0800]'
p2307
sa(dp2308
g6
I1
sg7
S'[18/Dec/2015:21:52:57 +0800]'
p2309
sa(dp2310
g6
I1
sg7
S'[18/Dec/2015:22:09:12 +0800]'
p2311
sa(dp2312
g6
I1
sg7
S'[18/Dec/2015:22:44:12 +0800]'
p2313
sa(dp2314
g6
I1
sg7
S'[18/Dec/2015:20:09:58 +0800]'
p2315
sa(dp2316
g6
I1
sg7
S'[18/Dec/2015:20:09:04 +0800]'
p2317
sa(dp2318
g6
I1
sg7
S'[18/Dec/2015:22:18:24 +0800]'
p2319
sa(dp2320
g6
I1
sg7
S'[18/Dec/2015:22:04:15 +0800]'
p2321
sa(dp2322
g6
I1
sg7
S'[18/Dec/2015:22:35:33 +0800]'
p2323
sa(dp2324
g6
I1
sg7
S'[18/Dec/2015:20:08:32 +0800]'
p2325
sa(dp2326
g6
I1
sg7
S'[18/Dec/2015:21:49:15 +0800]'
p2327
sa(dp2328
g6
I1
sg7
S'[18/Dec/2015:22:02:23 +0800]'
p2329
sa(dp2330
g6
I1
sg7
S'[18/Dec/2015:21:50:03 +0800]'
p2331
sa(dp2332
g6
I1
sg7
S'[18/Dec/2015:22:11:54 +0800]'
p2333
sa(dp2334
g6
I1
sg7
S'[18/Dec/2015:22:44:48 +0800]'
p2335
sa(dp2336
g6
I1
sg7
S'[18/Dec/2015:22:25:58 +0800]'
p2337
sa(dp2338
g6
I1
sg7
S'[18/Dec/2015:22:33:32 +0800]'
p2339
sa(dp2340
g6
I1
sg7
S'[18/Dec/2015:21:50:09 +0800]'
p2341
sa(dp2342
g6
I1
sg7
S'[18/Dec/2015:20:28:56 +0800]'
p2343
sa(dp2344
g6
I1
sg7
S'[18/Dec/2015:22:27:53 +0800]'
p2345
sa(dp2346
g6
I1
sg7
S'[18/Dec/2015:21:57:21 +0800]'
p2347
sa(dp2348
g6
I1
sg7
S'[18/Dec/2015:22:22:17 +0800]'
p2349
sa(dp2350
g6
I1
sg7
S'[19/Dec/2015:13:54:57 +0800]'
p2351
sa(dp2352
g6
I1
sg7
S'[18/Dec/2015:22:17:12 +0800]'
p2353
sa(dp2354
g6
I1
sg7
S'[18/Dec/2015:22:20:10 +0800]'
p2355
sa(dp2356
g6
I1
sg7
S'[18/Dec/2015:22:28:05 +0800]'
p2357
sa(dp2358
g6
I1
sg7
S'[18/Dec/2015:22:43:24 +0800]'
p2359
sa(dp2360
g6
I1
sg7
S'[18/Dec/2015:22:13:35 +0800]'
p2361
sa(dp2362
g6
I1
sg7
S'[18/Dec/2015:20:22:10 +0800]'
p2363
sa(dp2364
g6
I1
sg7
S'[19/Dec/2015:13:53:15 +0800]'
p2365
sa(dp2366
g6
I1
sg7
S'[18/Dec/2015:22:00:15 +0800]'
p2367
sa(dp2368
g6
I1
sg7
S'[18/Dec/2015:21:57:46 +0800]'
p2369
sa(dp2370
g6
I1
sg7
S'[18/Dec/2015:22:33:54 +0800]'
p2371
sa(dp2372
g6
I1
sg7
S'[18/Dec/2015:21:50:21 +0800]'
p2373
sa(dp2374
g6
I1
sg7
S'[18/Dec/2015:21:47:57 +0800]'
p2375
sa(dp2376
g6
I1
sg7
S'[18/Dec/2015:21:48:51 +0800]'
p2377
sa(dp2378
g6
I1
sg7
S'[18/Dec/2015:22:21:49 +0800]'
p2379
sa(dp2380
g6
I2
sg7
S'[19/Feb/2016:14:46:26 +0800]'
p2381
sa(dp2382
g6
I1
sg7
S'[18/Dec/2015:20:27:46 +0800]'
p2383
sa(dp2384
g6
I1
sg7
S'[18/Dec/2015:22:37:08 +0800]'
p2385
sa(dp2386
g6
I1
sg7
S'[18/Dec/2015:22:26:48 +0800]'
p2387
sa(dp2388
g6
I1
sg7
S'[19/Feb/2016:13:16:27 +0800]'
p2389
sa(dp2390
g6
I1
sg7
S'[18/Dec/2015:22:06:35 +0800]'
p2391
sa(dp2392
g6
I1
sg7
S'[18/Dec/2015:21:58:13 +0800]'
p2393
sa(dp2394
g6
I1
sg7
S'[18/Dec/2015:21:46:31 +0800]'
p2395
sa(dp2396
g6
I1
sg7
S'[18/Dec/2015:20:27:04 +0800]'
p2397
sa(dp2398
g6
I1
sg7
S'[18/Dec/2015:22:04:22 +0800]'
p2399
sa(dp2400
g6
I1
sg7
S'[18/Dec/2015:21:54:01 +0800]'
p2401
sa(dp2402
g6
I1
sg7
S'[18/Dec/2015:22:18:48 +0800]'
p2403
sa(dp2404
g6
I1
sg7
S'[18/Dec/2015:21:46:45 +0800]'
p2405
sa(dp2406
g6
I1
sg7
S'[18/Dec/2015:22:02:51 +0800]'
p2407
sa(dp2408
g6
I3
sg7
S'[19/Feb/2016:14:53:33 +0800]'
p2409
sa(dp2410
g6
I1
sg7
S'[18/Dec/2015:21:45:58 +0800]'
p2411
sa(dp2412
g6
I1
sg7
S'[18/Dec/2015:20:24:20 +0800]'
p2413
sa(dp2414
g6
I1
sg7
S'[18/Dec/2015:20:10:03 +0800]'
p2415
sa(dp2416
g6
I1
sg7
S'[18/Dec/2015:22:13:55 +0800]'
p2417
sa(dp2418
g6
I1
sg7
S'[18/Dec/2015:20:23:41 +0800]'
p2419
sa(dp2420
g6
I1
sg7
S'[18/Dec/2015:22:05:37 +0800]'
p2421
sa(dp2422
g6
I1
sg7
S'[18/Dec/2015:22:00:41 +0800]'
p2423
sa(dp2424
g6
I1
sg7
S'[18/Dec/2015:22:04:49 +0800]'
p2425
sa(dp2426
g6
I1
sg7
S'[18/Dec/2015:21:57:40 +0800]'
p2427
sa(dp2428
g6
I1
sg7
S'[19/Dec/2015:13:52:40 +0800]'
p2429
sa(dp2430
g6
I1
sg7
S'[18/Dec/2015:21:51:45 +0800]'
p2431
sa(dp2432
g6
I1
sg7
S'[18/Dec/2015:21:58:26 +0800]'
p2433
sa(dp2434
g6
I1
sg7
S'[18/Dec/2015:22:06:17 +0800]'
p2435
sa(dp2436
g6
I1
sg7
S'[18/Dec/2015:21:57:33 +0800]'
p2437
sa(dp2438
g6
I1
sg7
S'[18/Dec/2015:22:08:48 +0800]'
p2439
sa(dp2440
g6
I1
sg7
S'[18/Dec/2015:20:27:40 +0800]'
p2441
sa(dp2442
g6
I1
sg7
S'[18/Dec/2015:21:57:27 +0800]'
p2443
sa(dp2444
g6
I1
sg7
S'[18/Dec/2015:22:14:57 +0800]'
p2445
sa(dp2446
g6
I1
sg7
S'[18/Dec/2015:22:35:13 +0800]'
p2447
sa(dp2448
g6
I1
sg7
S'[18/Dec/2015:20:28:40 +0800]'
p2449
sa(dp2450
g6
I1
sg7
S'[18/Dec/2015:22:18:36 +0800]'
p2451
sa(dp2452
g6
I1
sg7
S'[18/Dec/2015:22:25:20 +0800]'
p2453
sa(dp2454
g6
I1
sg7
S'[18/Dec/2015:22:34:41 +0800]'
p2455
sa(dp2456
g6
I1
sg7
S'[18/Dec/2015:22:33:42 +0800]'
p2457
sa(dp2458
g6
I1
sg7
S'[18/Dec/2015:22:47:33 +0800]'
p2459
sa(dp2460
g6
I1
sg7
S'[18/Dec/2015:22:04:09 +0800]'
p2461
sa(dp2462
g6
I1
sg7
S'[18/Dec/2015:22:20:35 +0800]'
p2463
sa(dp2464
g6
I1
sg7
S'[19/Dec/2015:13:53:51 +0800]'
p2465
sa(dp2466
g6
I1
sg7
S'[18/Dec/2015:21:48:21 +0800]'
p2467
sa(dp2468
g6
I2
sg7
S'[19/Feb/2016:13:12:25 +0800]'
p2469
sa(dp2470
g6
I1
sg7
S'[18/Dec/2015:22:14:40 +0800]'
p2471
sa(dp2472
g6
I1
sg7
S'[18/Dec/2015:20:09:16 +0800]'
p2473
sa(dp2474
g6
I2
sg7
S'[19/Feb/2016:13:08:34 +0800]'
p2475
sa(dp2476
g6
I1
sg7
S'[18/Dec/2015:22:43:12 +0800]'
p2477
sa(dp2478
g6
I1
sg7
S'[18/Dec/2015:21:51:39 +0800]'
p2479
sa(dp2480
g6
I2
sg7
S'[19/Feb/2016:13:10:46 +0800]'
p2481
sa(dp2482
g6
I1
sg7
S'[18/Dec/2015:22:05:55 +0800]'
p2483
sa(dp2484
g6
I1
sg7
S'[19/Dec/2015:13:58:47 +0800]'
p2485
sa(dp2486
g6
I1
sg7
S'[18/Dec/2015:22:16:30 +0800]'
p2487
sa(dp2488
g6
I1
sg7
S'[18/Dec/2015:22:00:47 +0800]'
p2489
sa(dp2490
g6
I1
sg7
S'[18/Dec/2015:22:08:02 +0800]'
p2491
sa(dp2492
g6
I3
sg7
S'[19/Dec/2015:13:55:50 +0800]'
p2493
sa(dp2494
g6
I1
sg7
S'[18/Dec/2015:21:49:57 +0800]'
p2495
sa(dp2496
g6
I1
sg7
S'[18/Dec/2015:20:10:16 +0800]'
p2497
sa(dp2498
g6
I1
sg7
S'[18/Dec/2015:22:26:36 +0800]'
p2499
sa(dp2500
g6
I1
sg7
S'[18/Dec/2015:20:10:54 +0800]'
p2501
sa(dp2502
g6
I1
sg7
S'[18/Dec/2015:22:06:01 +0800]'
p2503
sa(dp2504
g6
I1
sg7
S'[18/Dec/2015:20:08:57 +0800]'
p2505
sa(dp2506
g6
I1
sg7
S'[18/Dec/2015:21:49:27 +0800]'
p2507
sa(dp2508
g6
I2
sg7
S'[19/Feb/2016:13:10:50 +0800]'
p2509
sa(dp2510
g6
I1
sg7
S'[18/Dec/2015:20:23:47 +0800]'
p2511
sa(dp2512
g6
I1
sg7
S'[19/Dec/2015:13:51:33 +0800]'
p2513
sa(dp2514
g6
I1
sg7
S'[18/Dec/2015:22:07:42 +0800]'
p2515
sa(dp2516
g6
I1
sg7
S'[18/Dec/2015:20:26:03 +0800]'
p2517
sa(dp2518
g6
I1
sg7
S'[18/Dec/2015:20:11:00 +0800]'
p2519
sa(dp2520
g6
I1
sg7
S'[18/Dec/2015:22:11:27 +0800]'
p2521
sa(dp2522
g6
I1
sg7
S'[18/Dec/2015:22:15:53 +0800]'
p2523
sa(dp2524
g6
I1
sg7
S'[18/Dec/2015:22:19:48 +0800]'
p2525
sa(dp2526
g6
I1
sg7
S'[18/Dec/2015:22:11:43 +0800]'
p2527
sa(dp2528
g6
I1
sg7
S'[18/Dec/2015:22:15:16 +0800]'
p2529
sa(dp2530
g6
I2
sg7
S'[19/Feb/2016:13:14:39 +0800]'
p2531
sa(dp2532
g6
I1
sg7
S'[18/Dec/2015:21:52:33 +0800]'
p2533
sa(dp2534
g6
I1
sg7
S'[18/Dec/2015:22:24:36 +0800]'
p2535
sa(dp2536
g6
I1
sg7
S'[18/Dec/2015:22:35:04 +0800]'
p2537
sa(dp2538
g6
I1
sg7
S'[18/Dec/2015:20:25:46 +0800]'
p2539
sa(dp2540
g6
I1
sg7
S'[18/Dec/2015:20:08:51 +0800]'
p2541
sa(dp2542
g6
I1
sg7
S'[18/Dec/2015:21:54:07 +0800]'
p2543
sa(dp2544
g6
I1
sg7
S'[18/Dec/2015:22:05:49 +0800]'
p2545
sa(dp2546
g6
I1
sg7
S'[18/Dec/2015:21:52:45 +0800]'
p2547
sa(dp2548
g6
I1
sg7
S'[18/Dec/2015:20:10:22 +0800]'
p2549
sa(dp2550
g6
I1
sg7
S'[18/Dec/2015:22:01:01 +0800]'
p2551
sa(dp2552
g6
I1
sg7
S'[18/Dec/2015:22:46:12 +0800]'
p2553
sa(dp2554
g6
I1
sg7
S'[18/Dec/2015:22:40:24 +0800]'
p2555
sa(dp2556
g6
I1
sg7
S'[18/Dec/2015:22:15:07 +0800]'
p2557
sa(dp2558
g6
I1
sg7
S'[19/Dec/2015:13:52:09 +0800]'
p2559
sa(dp2560
g6
I1
sg7
S'[18/Dec/2015:21:49:45 +0800]'
p2561
sasg7
S'req_time'
p2562
sa(dp2563
g2
I695
sg3
(lp2564
(dp2565
g6
I695
sg7
g42
sasg7
S'user'
p2566
sa(dp2567
g2
I607
sg3
(lp2568
(dp2569
g6
I536
sg7
S'info'
p2570
sa(dp2571
g6
I1
sg7
S'OpenSans-Bold-webfont.woff'
p2572
sa(dp2573
g6
I33
sg7
S'favicon.ico'
p2574
sa(dp2575
g6
I2
sg7
S'dc.js.map'
p2576
sa(dp2577
g6
I3
sg7
S'config.js'
p2578
sa(dp2579
g6
I2
sg7
S'config.9d15ad145512a2325cd4.js'
p2580
sa(dp2581
g6
I1
sg7
S'org-logo-normal.png'
p2582
sa(dp2583
g6
I5
sg7
S'OpenSans-Regular-webfont.woff'
p2584
sa(dp2585
g6
I4
sg7
S'translations.c62633ed2706bc89c199.js'
p2586
sa(dp2587
g6
I3
sg7
S'1.LoggedInPage.c62633ed2706bc89c199.js'
p2588
sa(dp2589
g6
I2
sg7
S'app.9d15ad145512a2325cd4.js'
p2590
sa(dp2591
g6
I3
sg7
S'app.c62633ed2706bc89c199.js'
p2592
sa(dp2593
g6
I2
sg7
S'2.LoggedInPage.9d15ad145512a2325cd4.js'
p2594
sa(dp2595
g6
I4
sg7
S'vendor.bundle.js'
p2596
sa(dp2597
g6
I1
sg7
S'loginsight'
p2598
sa(dp2599
g6
I2
sg7
S'translations.9d15ad145512a2325cd4.js'
p2600
sa(dp2601
g6
I3
sg7
S'6.6.c62633ed2706bc89c199.js'
p2602
sasg7
S'file'
p2603
sa(dp2604
g2
I695
sg3
(lp2605
(dp2606
g6
I595
sg7
S'"Mozilla/5.0 (Macintosh; Intel Mac OS X 10_11_2) AppleWebKit/537.36 (KHTML, like Gecko) Chrome/47.0.2526.106 Safari/537.36"'
p2607
sa(dp2608
g6
I100
sg7
S'"Mozilla/5.0 (Macintosh; Intel Mac OS X 10_11_3) AppleWebKit/537.36 (KHTML, like Gecko) Chrome/48.0.2564.109 Safari/537.36"'
p2609
sasg7
S'useragent'
p2610
sa(dp2611
g2
I695
sg3
(lp2612
(dp2613
g6
I695
sg7
S'127.0.0.1'
p2614
sasg7
S'clientip'
p2615
sa(dp2616
g2
I566
sg3
(lp2617
(dp2618
g6
I8
sg7
S'api'
p2619
sa(dp2620
g6
I1
sg7
S'ab'
p2621
sa(dp2622
g6
I1
sg7
S'_static'
p2623
sa(dp2624
g6
I536
sg7
S'sockjs-node'
p2625
sa(dp2626
g6
I20
sg7
S'auth'
p2627
sasg7
S'root'
p2628
sa(dp2629
g2
I695
sg3
(lp2630
(dp2631
g6
I3
sg7
S'POST'
p2632
sa(dp2633
g6
I692
sg7
S'GET'
p2634
sasg7
S'method'
p2635
sa(dp2636
g2
I541
sg3
(lp2637
(dp2638
g6
I1
sg7
S't=1450446693663'
p2639
sa(dp2640
g6
I1
sg7
S't=1450449680519'
p2641
sa(dp2642
g6
I1
sg7
S't=1450449102896'
p2643
sa(dp2644
g6
I1
sg7
S't=1450447709101'
p2645
sa(dp2646
g6
I1
sg7
S'since=1455778342.635&stat=received&group=project'
p2647
sa(dp2648
g6
I1
sg7
S't=1450447449620'
p2649
sa(dp2650
g6
I1
sg7
S't=1450440512142'
p2651
sa(dp2652
g6
I1
sg7
S't=1450504742899'
p2653
sa(dp2654
g6
I1
sg7
S't=1450441720380'
p2655
sa(dp2656
g6
I1
sg7
S't=1450447810870'
p2657
sa(dp2658
g6
I1
sg7
S't=1450504509897'
p2659
sa(dp2660
g6
I1
sg7
S't=1450449573738'
p2661
sa(dp2662
g6
I1
sg7
S't=1450446816656'
p2663
sa(dp2664
g6
I1
sg7
S't=1450447887921'
p2665
sa(dp2666
g6
I1
sg7
S't=1450446615749'
p2667
sa(dp2668
g6
I1
sg7
S't=1450447509247'
p2669
sa(dp2670
g6
I1
sg7
S't=1450450014097'
p2671
sa(dp2672
g6
I1
sg7
S't=1450447182634'
p2673
sa(dp2674
g6
I1
sg7
S't=1450446398962'
p2675
sa(dp2676
g6
I1
sg7
S't=1450504377946'
p2677
sa(dp2678
g6
I1
sg7
S't=1450449996842'
p2679
sa(dp2680
g6
I1
sg7
S't=1450448590833'
p2681
sa(dp2682
g6
I1
sg7
S't=1450449450876'
p2683
sa(dp2684
g6
I1
sg7
S't=1450449376398'
p2685
sa(dp2686
g6
I1
sg7
S't=1450441660902'
p2687
sa(dp2688
g6
I1
sg7
S't=1450447482624'
p2689
sa(dp2690
g6
I1
sg7
S't=1450449134643'
p2691
sa(dp2692
g6
I1
sg7
S't=1450441490532'
p2693
sa(dp2694
g6
I1
sg7
S't=1450449438552'
p2695
sa(dp2696
g6
I1
sg7
S't=1450446933509'
p2697
sa(dp2698
g6
I1
sg7
S't=1450447163995'
p2699
sa(dp2700
g6
I1
sg7
S't=1450446860854'
p2701
sa(dp2702
g6
I1
sg7
S't=1450441644882'
p2703
sa(dp2704
g6
I1
sg7
S't=1450440598638'
p2705
sa(dp2706
g6
I1
sg7
S't=1450504550419'
p2707
sa(dp2708
g6
I1
sg7
S't=1450440504952'
p2709
sa(dp2710
g6
I1
sg7
S't=1450447443752'
p2711
sa(dp2712
g6
I1
sg7
S't=1450441381895'
p2713
sa(dp2714
g6
I1
sg7
S't=1450449428575'
p2715
sa(dp2716
g6
I1
sg7
S't=1450448774766'
p2717
sa(dp2718
g6
I1
sg7
S't=1450447254629'
p2719
sa(dp2720
g6
I1
sg7
S't=1450441470885'
p2721
sa(dp2722
g6
I1
sg7
S't=1450441375893'
p2723
sa(dp2724
g6
I1
sg7
S't=1450441683918'
p2725
sa(dp2726
g6
I1
sg7
S't=1450447389253'
p2727
sa(dp2728
g6
I1
sg7
S't=1450449660005'
p2729
sa(dp2730
g6
I1
sg7
S't=1450448479842'
p2731
sa(dp2732
g6
I1
sg7
S't=1450448080946'
p2733
sa(dp2734
g6
I1
sg7
S't=1450448232605'
p2735
sa(dp2736
g6
I1
sg7
S't=1450441569905'
p2737
sa(dp2738
g6
I1
sg7
S't=1450447682383'
p2739
sa(dp2740
g6
I1
sg7
S't=1450449780848'
p2741
sa(dp2742
g6
I1
sg7
S't=1450504503897'
p2743
sa(dp2744
g6
I1
sg7
S't=1450447800006'
p2745
sa(dp2746
g6
I1
sg7
S't=1450447323635'
p2747
sa(dp2748
g6
I1
sg7
S't=1450441403901'
p2749
sa(dp2750
g6
I1
sg7
S't=1450446450653'
p2751
sa(dp2752
g6
I1
sg7
S't=1450440502937'
p2753
sa(dp2754
g6
I1
sg7
S't=1450447561948'
p2755
sa(dp2756
g6
I1
sg7
S't=1450504389950'
p2757
sa(dp2758
g6
I1
sg7
S't=1450446993814'
p2759
sa(dp2760
g6
I1
sg7
S't=1450449313508'
p2761
sa(dp2762
g6
I1
sg7
S't=1450449006882'
p2763
sa(dp2764
g6
I1
sg7
S't=1450448116420'
p2765
sa(dp2766
g6
I1
sg7
S't=1450448180029'
p2767
sa(dp2768
g6
I1
sg7
S't=1450449624533'
p2769
sa(dp2770
g6
I1
sg7
S't=1450447525621'
p2771
sa(dp2772
g6
I1
sg7
S't=1450447764939'
p2773
sa(dp2774
g6
I1
sg7
S't=1450446741641'
p2775
sa(dp2776
g6
I1
sg7
S't=1450447293520'
p2777
sa(dp2778
g6
I1
sg7
S't=1450441575930'
p2779
sa(dp2780
g6
I1
sg7
S't=1450448994887'
p2781
sa(dp2782
g6
I1
sg7
S't=1450447118960'
p2783
sa(dp2784
g6
I1
sg7
S't=1450504713830'
p2785
sa(dp2786
g6
I1
sg7
S't=1450441702296'
p2787
sa(dp2788
g6
I1
sg7
S't=1450447106712'
p2789
sa(dp2790
g6
I1
sg7
S't=1450447567615'
p2791
sa(dp2792
g6
I1
sg7
S't=1450504722867'
p2793
sa(dp2794
g6
I1
sg7
S't=1450440610306'
p2795
sa(dp2796
g6
I1
sg7
S't=1450449828837'
p2797
sa(dp2798
g6
I1
sg7
S't=1450449343859'
p2799
sa(dp2800
g6
I1
sg7
S't=1450446783651'
p2801
sa(dp2802
g6
I1
sg7
S't=1450448070911'
p2803
sa(dp2804
g6
I1
sg7
S't=1450504288079'
p2805
sa(dp2806
g6
I1
sg7
S't=1450447079968'
p2807
sa(dp2808
g6
I1
sg7
S't=1450448279012'
p2809
sa(dp2810
g6
I1
sg7
S't=1450446318671'
p2811
sa(dp2812
g6
I1
sg7
S't=1450447177238'
p2813
sa(dp2814
g6
I1
sg7
S't=1450447903952'
p2815
sa(dp2816
g6
I1
sg7
S't=1450447776937'
p2817
sa(dp2818
g6
I1
sg7
S't=1450448982884'
p2819
sa(dp2820
g6
I1
sg7
S't=1450448328914'
p2821
sa(dp2822
g6
I1
sg7
S't=1450446777643'
p2823
sa(dp2824
g6
I1
sg7
S't=1450447148990'
p2825
sa(dp2826
g6
I1
sg7
S't=1450447377239'
p2827
sa(dp2828
g6
I1
sg7
S't=1450450060730'
p2829
sa(dp2830
g6
I1
sg7
S't=1450446364855'
p2831
sa(dp2832
g6
I1
sg7
S't=1450447035647'
p2833
sa(dp2834
g6
I1
sg7
S't=1450448838910'
p2835
sa(dp2836
g6
I1
sg7
S't=1450440525136'
p2837
sa(dp2838
g6
I1
sg7
S't=1450504371976'
p2839
sa(dp2840
g6
I1
sg7
S't=1450449529760'
p2841
sa(dp2842
g6
I1
sg7
S'since=1455778342.642&stat=rejected'
p2843
sa(dp2844
g6
I1
sg7
S't=1450449936844'
p2845
sa(dp2846
g6
I1
sg7
S't=1450504729919'
p2847
sa(dp2848
g6
I1
sg7
S't=1450449353968'
p2849
sa(dp2850
g6
I1
sg7
S't=1450447023642'
p2851
sa(dp2852
g6
I1
sg7
S't=1450441708301'
p2853
sa(dp2854
g6
I1
sg7
S't=1450446443666'
p2855
sa(dp2856
g6
I1
sg7
S't=1450447728628'
p2857
sa(dp2858
g6
I1
sg7
S't=1450446823676'
p2859
sa(dp2860
g6
I1
sg7
S't=1450447555900'
p2861
sa(dp2862
g6
I1
sg7
S't=1450448710821'
p2863
sa(dp2864
g6
I1
sg7
S't=1450447363628'
p2865
sa(dp2866
g6
I1
sg7
S't=1450440640062'
p2867
sa(dp2868
g6
I1
sg7
S't=1450446967939'
p2869
sa(dp2870
g6
I1
sg7
S't=1450449648860'
p2871
sa(dp2872
g6
I1
sg7
S't=1450450004486'
p2873
sa(dp2874
g6
I1
sg7
S't=1450448447016'
p2875
sa(dp2876
g6
I1
sg7
S't=1450441521902'
p2877
sa(dp2878
g6
I1
sg7
S't=1450447281419'
p2879
sa(dp2880
g6
I1
sg7
S't=1450446853656'
p2881
sa(dp2882
g6
I1
sg7
S't=1450447197696'
p2883
sa(dp2884
g6
I1
sg7
S't=1450441325152'
p2885
sa(dp2886
g6
I1
sg7
S't=1450449583965'
p2887
sa(dp2888
g6
I1
sg7
S't=1450447234787'
p2889
sa(dp2890
g6
I1
sg7
S't=1450447017649'
p2891
sa(dp2892
g6
I1
sg7
S't=1450449614757'
p2893
sa(dp2894
g6
I1
sg7
S't=1450440603987'
p2895
sa(dp2896
g6
I1
sg7
S't=1450446645652'
p2897
sa(dp2898
g6
I1
sg7
S't=1450447261634'
p2899
sa(dp2900
g6
I1
sg7
S't=1450441655369'
p2901
sa(dp2902
g6
I1
sg7
S't=1450441696334'
p2903
sa(dp2904
g6
I1
sg7
S't=1450447298612'
p2905
sa(dp2906
g6
I1
sg7
S't=1450447131179'
p2907
sa(dp2908
g6
I1
sg7
S't=1450449212736'
p2909
sa(dp2910
g6
I1
sg7
S't=1450504347904'
p2911
sa(dp2912
g6
I1
sg7
S't=1450447337899'
p2913
sa(dp2914
g6
I1
sg7
S't=1450447543962'
p2915
sa(dp2916
g6
I1
sg7
S't=1450448316937'
p2917
sa(dp2918
g6
I1
sg7
S't=1450447005647'
p2919
sa(dp2920
g6
I1
sg7
S't=1450448519998'
p2921
sa(dp2922
g6
I1
sg7
S't=1450448304593'
p2923
sa(dp2924
g6
I1
sg7
S't=1450447880611'
p2925
sa(dp2926
g6
I1
sg7
S't=1450504486136'
p2927
sa(dp2928
g6
I1
sg7
S't=1450504491904'
p2929
sa(dp2930
g6
I1
sg7
S't=1450446723660'
p2931
sa(dp2932
g6
I1
sg7
S't=1450448294786'
p2933
sa(dp2934
g6
I1
sg7
S't=1450446973744'
p2935
sa(dp2936
g6
I1
sg7
S't=1450446405056'
p2937
sa(dp2938
g6
I1
sg7
S't=1450448256909'
p2939
sa(dp2940
g6
I1
sg7
S't=1450447431651'
p2941
sa(dp2942
g6
I1
sg7
S't=1450440585934'
p2943
sa(dp2944
g6
I1
sg7
S't=1450447209631'
p2945
sa(dp2946
g6
I1
sg7
S't=1450446470979'
p2947
sa(dp2948
g6
I1
sg7
S't=1450448453065'
p2949
sa(dp2950
g6
I1
sg7
S't=1450449984838'
p2951
sa(dp2952
g6
I1
sg7
S't=1450441398030'
p2953
sa(dp2954
g6
I1
sg7
S't=1450448530991'
p2955
sa(dp2956
g6
I1
sg7
S't=1450440506166'
p2957
sa(dp2958
g6
I1
sg7
S't=1450447503201'
p2959
sa(dp2960
g6
I1
sg7
S't=1450449720849'
p2961
sa(dp2962
g6
I1
sg7
S't=1450441501892'
p2963
sa(dp2964
g6
I1
sg7
S't=1450449174870'
p2965
sa(dp2966
g6
I1
sg7
S't=1450441349351'
p2967
sa(dp2968
g6
I1
sg7
S't=1450441736186'
p2969
sa(dp2970
g6
I1
sg7
S't=1450449462862'
p2971
sa(dp2972
g6
I1
sg7
S't=1450448285066'
p2973
sa(dp2974
g6
I1
sg7
S't=1450441370105'
p2975
sa(dp2976
g6
I1
sg7
S't=1450440563221'
p2977
sa(dp2978
g6
I1
sg7
S't=1450504422897'
p2979
sa(dp2980
g6
I1
sg7
S't=1450504360094'
p2981
sa(dp2982
g6
I1
sg7
S't=1450448125836'
p2983
sa(dp2984
g6
I1
sg7
S't=1450440531980'
p2985
sa(dp2986
g6
I1
sg7
S't=1450446345508'
p2987
sa(dp2988
g6
I1
sg7
S't=1450446358676'
p2989
sa(dp2990
g6
I1
sg7
S't=1450448568927'
p2991
sa(dp2992
g6
I1
sg7
S't=1450446681656'
p2993
sa(dp2994
g6
I1
sg7
S't=1450446896681'
p2995
sa(dp2996
g6
I1
sg7
S't=1450446938744'
p2997
sa(dp2998
g6
I1
sg7
S't=1450446513663'
p2999
sa(dp3000
g6
I1
sg7
S't=1450446567670'
p3001
sa(dp3002
g6
I1
sg7
S't=1450447595105'
p3003
sa(dp3004
g6
I1
sg7
S't=1450448891038'
p3005
sa(dp3006
g6
I1
sg7
S't=1450449203024'
p3007
sa(dp3008
g6
I1
sg7
S't=1450446903251'
p3009
sa(dp3010
g6
I1
sg7
S't=1450447053646'
p3011
sa(dp3012
g6
I1
sg7
S't=1450446944684'
p3013
sa(dp3014
g6
I1
sg7
S't=1450446735657'
p3015
sa(dp3016
g6
I1
sg7
S't=1450446909302'
p3017
sa(dp3018
g6
I1
sg7
S't=1450448097828'
p3019
sa(dp3020
g6
I1
sg7
S't=1450504476369'
p3021
sa(dp3022
g6
I1
sg7
S't=1450449497981'
p3023
sa(dp3024
g6
I1
sg7
S't=1450449385774'
p3025
sa(dp3026
g6
I1
sg7
S't=1450504497897'
p3027
sa(dp3028
g6
I1
sg7
S't=1450448664913'
p3029
sa(dp3030
g6
I1
sg7
S't=1450447215638'
p3031
sa(dp3032
g6
I1
sg7
S't=1450446627667'
p3033
sa(dp3034
g6
I1
sg7
S't=1450447979075'
p3035
sa(dp3036
g6
I1
sg7
S't=1450447412997'
p3037
sa(dp3038
g6
I1
sg7
S't=1450446561666'
p3039
sa(dp3040
g6
I1
sg7
S't=1450448190027'
p3041
sa(dp3042
g6
I1
sg7
S't=1450446465525'
p3043
sa(dp3044
g6
I1
sg7
S't=1450447124682'
p3045
sa(dp3046
g6
I1
sg7
S't=1450448922911'
p3047
sa(dp3048
g6
I1
sg7
S't=1450449670786'
p3049
sa(dp3050
g6
I1
sg7
S't=1450448642763'
p3051
sa(dp3052
g6
I1
sg7
S't=1450446657654'
p3053
sa(dp3054
g6
I1
sg7
S't=1450441511497'
p3055
sa(dp3056
g6
I1
sg7
S't=1450446979641'
p3057
sa(dp3058
g6
I1
sg7
S't=1450449054884'
p3059
sa(dp3060
g6
I1
sg7
S't=1450441337065'
p3061
sa(dp3062
g6
I1
sg7
S't=1450446370669'
p3063
sa(dp3064
g6
I1
sg7
S't=1450446810637'
p3065
sa(dp3066
g6
I1
sg7
S't=1450447350636'
p3067
sa(dp3068
g6
I1
sg7
S't=1450448556579'
p3069
sa(dp3070
g6
I1
sg7
S't=1450447462618'
p3071
sa(dp3072
g6
I1
sg7
S't=1450447936333'
p3073
sa(dp3074
g6
I1
sg7
S't=1450449756836'
p3075
sa(dp3076
g6
I1
sg7
S't=1450446675693'
p3077
sa(dp3078
g6
I1
sg7
S't=1450447401419'
p3079
sa(dp3080
g6
I1
sg7
S't=1450440569284'
p3081
sa(dp3082
g6
I1
sg7
S't=1450446501654'
p3083
sa(dp3084
g6
I1
sg7
S't=1450504744909'
p3085
sa(dp3086
g6
I1
sg7
S't=1450446383823'
p3087
sa(dp3088
g6
I1
sg7
S't=1450448796914'
p3089
sa(dp3090
g6
I1
sg7
S't=1450446847812'
p3091
sa(dp3092
g6
I1
sg7
S't=1450446495660'
p3093
sa(dp3094
g6
I1
sg7
S't=1450446717652'
p3095
sa(dp3096
g6
I1
sg7
S't=1450448435855'
p3097
sa(dp3098
g6
I1
sg7
S't=1450446669655'
p3099
sa(dp3100
g6
I1
sg7
S't=1450446555669'
p3101
sa(dp3102
g6
I1
sg7
S't=1450441546885'
p3103
sa(dp3104
g6
I1
sg7
S't=1450446332888'
p3105
sa(dp3106
g6
I1
sg7
S't=1450448652583'
p3107
sa(dp3108
g6
I1
sg7
S't=1450449840845'
p3109
sa(dp3110
g6
I1
sg7
S't=1450449864842'
p3111
sa(dp3112
g6
I1
sg7
S't=1450441558199'
p3113
sa(dp3114
g6
I1
sg7
S't=1450440580748'
p3115
sa(dp3116
g6
I1
sg7
S't=1450447425609'
p3117
sa(dp3118
g6
I1
sg7
S't=1450446457012'
p3119
sa(dp3120
g6
I1
sg7
S't=1450447631966'
p3121
sa(dp3122
g6
I1
sg7
S't=1450441588440'
p3123
sa(dp3124
g6
I1
sg7
S't=1450504515892'
p3125
sa(dp3126
g6
I1
sg7
S't=1450449792830'
p3127
sa(dp3128
g6
I1
sg7
S't=1450448147067'
p3129
sa(dp3130
g6
I1
sg7
S't=1450441582432'
p3131
sa(dp3132
g6
I1
sg7
S't=1450448489981'
p3133
sa(dp3134
g6
I1
sg7
S't=1450447589057'
p3135
sa(dp3136
g6
I1
sg7
S't=1450504431870'
p3137
sa(dp3138
g6
I1
sg7
S't=1450446885090'
p3139
sa(dp3140
g6
I1
sg7
S't=1450446424672'
p3141
sa(dp3142
g6
I1
sg7
S't=1450441614900'
p3143
sa(dp3144
g6
I1
sg7
S't=1450447514689'
p3145
sa(dp3146
g6
I1
sg7
S't=1450447275375'
p3147
sa(dp3148
g6
I1
sg7
S't=1450447073899'
p3149
sa(dp3150
g6
I1
sg7
S't=1450449323610'
p3151
sa(dp3152
g6
I1
sg7
S't=1450450034509'
p3153
sa(dp3154
g6
I1
sg7
S't=1450504383943'
p3155
sa(dp3156
g6
I1
sg7
S't=1450446525660'
p3157
sa(dp3158
g6
I1
sg7
S't=1450448509894'
p3159
sa(dp3160
g6
I1
sg7
S't=1450446803726'
p3161
sa(dp3162
g6
I1
sg7
S't=1450449281990'
p3163
sa(dp3164
g6
I1
sg7
S't=1450449271647'
p3165
sa(dp3166
g6
I1
sg7
S't=1450446829691'
p3167
sa(dp3168
g6
I1
sg7
S't=1450447093643'
p3169
sa(dp3170
g6
I1
sg7
S't=1450504353907'
p3171
sa(dp3172
g6
I1
sg7
S't=1450504533373'
p3173
sa(dp3174
g6
I1
sg7
S't=1450447305667'
p3175
sa(dp3176
g6
I1
sg7
S't=1450449708906'
p3177
sa(dp3178
g6
I1
sg7
S't=1450447614795'
p3179
sa(dp3180
g6
I1
sg7
S't=1450447752947'
p3181
sa(dp3182
g6
I1
sg7
S't=1450448688899'
p3183
sa(dp3184
g6
I1
sg7
S't=1450441440069'
p3185
sa(dp3186
g6
I1
sg7
S't=1450448900757'
p3187
sa(dp3188
g6
I1
sg7
S't=1450448003946'
p3189
sa(dp3190
g6
I1
sg7
S't=1450446391673'
p3191
sa(dp3192
g6
I1
sg7
S't=1450448537058'
p3193
sa(dp3194
g6
I1
sg7
S't=1450504335907'
p3195
sa(dp3196
g6
I1
sg7
S't=1450449487647'
p3197
sa(dp3198
g6
I1
sg7
S't=1450447060639'
p3199
sa(dp3200
g6
I1
sg7
S't=1450448934885'
p3201
sa(dp3202
g6
I1
sg7
S't=1450448546762'
p3203
sa(dp3204
g6
I1
sg7
S't=1450448970880'
p3205
sa(dp3206
g6
I1
sg7
S't=1450448873901'
p3207
sa(dp3208
g6
I1
sg7
S't=1450447228627'
p3209
sa(dp3210
g6
I1
sg7
S't=1450447154670'
p3211
sa(dp3212
g6
I1
sg7
S't=1450446573660'
p3213
sa(dp3214
g6
I1
sg7
S't=1450449636872'
p3215
sa(dp3216
g6
I1
sg7
S't=1450446872675'
p3217
sa(dp3218
g6
I1
sg7
S't=1450446339454'
p3219
sa(dp3220
g6
I1
sg7
S't=1450448244934'
p3221
sa(dp3222
g6
I1
sg7
S't=1450446986744'
p3223
sa(dp3224
g6
I1
sg7
S't=1450449604990'
p3225
sa(dp3226
g6
I1
sg7
S't=1450449418513'
p3227
sa(dp3228
g6
I1
sg7
S't=1450441666966'
p3229
sa(dp3230
g6
I1
sg7
S't=1450447691864'
p3231
sa(dp3232
g6
I1
sg7
S't=1450446955645'
p3233
sa(dp3234
g6
I1
sg7
S't=1450447469780'
p3235
sa(dp3236
g6
I1
sg7
S't=1450448169802'
p3237
sa(dp3238
g6
I1
sg7
S't=1450448958876'
p3239
sa(dp3240
g6
I1
sg7
S't=1450504543122'
p3241
sa(dp3242
g6
I1
sg7
S't=1450441563886'
p3243
sa(dp3244
g6
I1
sg7
S't=1450449246872'
p3245
sa(dp3246
g6
I1
sg7
S't=1450446482706'
p3247
sa(dp3248
g6
I1
sg7
S't=1450448136029'
p3249
sa(dp3250
g6
I1
sg7
S't=1450440660973'
p3251
sa(dp3252
g6
I1
sg7
S't=1450446949628'
p3253
sa(dp3254
g6
I1
sg7
S't=1450448198381'
p3255
sa(dp3256
g6
I1
sg7
S't=1450441460891'
p3257
sa(dp3258
g6
I1
sg7
S't=1450440647746'
p3259
sa(dp3260
g6
I1
sg7
S't=1450447531876'
p3261
sa(dp3262
g6
I1
sg7
S't=1450448885003'
p3263
sa(dp3264
g6
I1
sg7
S't=1450447330807'
p3265
sa(dp3266
g6
I1
sg7
S't=1450447241874'
p3267
sa(dp3268
g6
I1
sg7
S't=1450448015037'
p3269
sa(dp3270
g6
I1
sg7
S't=1450449304397'
p3271
sa(dp3272
g6
I1
sg7
S't=1450504365886'
p3273
sa(dp3274
g6
I1
sg7
S't=1450446687844'
p3275
sa(dp3276
g6
I1
sg7
S't=1450448046913'
p3277
sa(dp3278
g6
I1
sg7
S't=1450449948837'
p3279
sa(dp3280
g6
I1
sg7
S't=1450446417109'
p3281
sa(dp3282
g6
I1
sg7
S't=1450449924840'
p3283
sa(dp3284
g6
I1
sg7
S't=1450441433907'
p3285
sa(dp3286
g6
I1
sg7
S't=1450446711656'
p3287
sa(dp3288
g6
I1
sg7
S't=1450447383335'
p3289
sa(dp3290
g6
I1
sg7
S'since=1455778342.679&stat=received&group=project'
p3291
sa(dp3292
g6
I1
sg7
S't=1450446639651'
p3293
sa(dp3294
g6
I1
sg7
S't=1450441330896'
p3295
sa(dp3296
g6
I1
sg7
S't=1450450053897'
p3297
sa(dp3298
g6
I1
sg7
S't=1450441690450'
p3299
sa(dp3300
g6
I1
sg7
S't=1450446585658'
p3301
sa(dp3302
g6
I1
sg7
S't=1450449744841'
p3303
sa(dp3304
g6
I1
sg7
S't=1450448160003'
p3305
sa(dp3306
g6
I1
sg7
S't=1450448633046'
p3307
sa(dp3308
g6
I1
sg7
S't=1450447047635'
p3309
sa(dp3310
g6
I1
sg7
S't=1450447740964'
p3311
sa(dp3312
g6
I1
sg7
S't=1450449732848'
p3313
sa(dp3314
g6
I1
sg7
S't=1450446507654'
p3315
sa(dp3316
g6
I1
sg7
S't=1450446913652'
p3317
sa(dp3318
g6
I1
sg7
S't=1450446591655'
p3319
sa(dp3320
g6
I1
sg7
S't=1450441714522'
p3321
sa(dp3322
g6
I1
sg7
S't=1450447870837'
p3323
sa(dp3324
g6
I1
sg7
S't=1450446699651'
p3325
sa(dp3326
g6
I1
sg7
S't=1450448765056'
p3327
sa(dp3328
g6
I1
sg7
S't=1450449960829'
p3329
sa(dp3330
g6
I1
sg7
S't=1450447489192'
p3331
sa(dp3332
g6
I1
sg7
S't=1450441427898'
p3333
sa(dp3334
g6
I1
sg7
S't=1450446705649'
p3335
sa(dp3336
g6
I1
sg7
S't=1450441391909'
p3337
sa(dp3338
g6
I1
sg7
S'since=1455853942.642&resolution=1h&stat=received'
p3339
sa(dp3340
g6
I1
sg7
S't=1450441516078'
p3341
sa(dp3342
g6
I1
sg7
S't=1450449852844'
p3343
sa(dp3344
g6
I1
sg7
S't=1450447835070'
p3345
sa(dp3346
g6
I1
sg7
S't=1450447893586'
p3347
sa(dp3348
g6
I1
sg7
S't=1450446790836'
p3349
sa(dp3350
g6
I1
sg7
S't=1450449018885'
p3351
sa(dp3352
g6
I1
sg7
S't=1450446621665'
p3353
sa(dp3354
g6
I1
sg7
S't=1450448758883'
p3355
sa(dp3356
g6
I1
sg7
S't=1450440628293'
p3357
sa(dp3358
g6
I1
sg7
S't=1450441343214'
p3359
sa(dp3360
g6
I1
sg7
S't=1450449768844'
p3361
sa(dp3362
g6
I1
sg7
S't=1450446603669'
p3363
sa(dp3364
g6
I1
sg7
S't=1450441416031'
p3365
sa(dp3366
g6
I1
sg7
S't=1450448700003'
p3367
sa(dp3368
g6
I1
sg7
S't=1450440654949'
p3369
sa(dp3370
g6
I1
sg7
S't=1450447652043'
p3371
sa(dp3372
g6
I1
sg7
S't=1450446878960'
p3373
sa(dp3374
g6
I1
sg7
S't=1450446663657'
p3375
sa(dp3376
g6
I1
sg7
S't=1450448388911'
p3377
sa(dp3378
g6
I1
sg7
S't=1450441731692'
p3379
sa(dp3380
g6
I1
sg7
S't=1450448627009'
p3381
sa(dp3382
g6
I1
sg7
S't=1450449972834'
p3383
sa(dp3384
g6
I1
sg7
S't=1450504305940'
p3385
sa(dp3386
g6
I1
sg7
S'member=1'
p3387
sa(dp3388
g6
I1
sg7
S't=1450446430660'
p3389
sa(dp3390
g6
I1
sg7
S't=1450448615860'
p3391
sa(dp3392
g6
I1
sg7
S't=1450448400005'
p3393
sa(dp3394
g6
I1
sg7
S't=1450446549672'
p3395
sa(dp3396
g6
I1
sg7
S't=1450448730600'
p3397
sa(dp3398
g6
I1
sg7
S't=1450446377776'
p3399
sa(dp3400
g6
I1
sg7
S't=1450447945855'
p3401
sa(dp3402
g6
I1
sg7
S't=1450447100913'
p3403
sa(dp3404
g6
I1
sg7
S't=1450447011649'
p3405
sa(dp3406
g6
I1
sg7
S't=1450447086644'
p3407
sa(dp3408
g6
I1
sg7
S't=1450448153076'
p3409
sa(dp3410
g6
I1
sg7
S't=1450440673022'
p3411
sa(dp3412
g6
I1
sg7
S't=1450449593983'
p3413
sa(dp3414
g6
I1
sg7
S't=1450441409991'
p3415
sa(dp3416
g6
I1
sg7
S't=1450449090632'
p3417
sa(dp3418
g6
I1
sg7
S't=1450448826657'
p3419
sa(dp3420
g6
I1
sg7
S't=1450446921225'
p3421
sa(dp3422
g6
I1
sg7
S't=1450447371193'
p3423
sa(dp3424
g6
I1
sg7
S't=1450446325418'
p3425
sa(dp3426
g6
I1
sg7
S't=1450446410849'
p3427
sa(dp3428
g6
I1
sg7
S't=1450504341908'
p3429
sa(dp3430
g6
I1
sg7
S't=1450440575612'
p3431
sa(dp3432
g6
I1
sg7
S't=1450447170059'
p3433
sa(dp3434
g6
I1
sg7
S't=1450440634713'
p3435
sa(dp3436
g6
I1
sg7
S't=1450447269116'
p3437
sa(dp3438
g6
I1
sg7
S't=1450448910569'
p3439
sa(dp3440
g6
I1
sg7
S't=1450449114872'
p3441
sa(dp3442
g6
I1
sg7
S't=1450504740604'
p3443
sa(dp3444
g6
I1
sg7
S't=1450448035032'
p3445
sa(dp3446
g6
I1
sg7
S't=1450447136691'
p3447
sa(dp3448
g6
I1
sg7
S't=1450447641839'
p3449
sa(dp3450
g6
I1
sg7
S't=1450446597649'
p3451
sa(dp3452
g6
I1
sg7
S't=1450449912847'
p3453
sa(dp3454
g6
I1
sg7
S't=1450440544385'
p3455
sa(dp3456
g6
I1
sg7
S't=1450449900843'
p3457
sa(dp3458
g6
I1
sg7
S't=1450448470042'
p3459
sa(dp3460
g6
I1
sg7
S't=1450447703051'
p3461
sa(dp3462
g6
I1
sg7
S't=1450449196962'
p3463
sa(dp3464
g6
I1
sg7
S't=1450449042882'
p3465
sa(dp3466
g6
I1
sg7
S't=1450447419001'
p3467
sa(dp3468
g6
I1
sg7
S't=1450450044538'
p3469
sa(dp3470
g6
I1
sg7
S't=1450504329902'
p3471
sa(dp3472
g6
I1
sg7
S't=1450446999647'
p3473
sa(dp3474
g6
I1
sg7
S't=1450449876835'
p3475
sa(dp3476
g6
I1
sg7
S't=1450448720572'
p3477
sa(dp3478
g6
I1
sg7
S't=1450447343921'
p3479
sa(dp3480
g6
I1
sg7
S't=1450504311954'
p3481
sa(dp3482
g6
I1
sg7
S't=1450441528219'
p3483
sa(dp3484
g6
I1
sg7
S't=1450446797698'
p3485
sa(dp3486
g6
I1
sg7
S't=1450450024763'
p3487
sa(dp3488
g6
I1
sg7
S't=1450449333758'
p3489
sa(dp3490
g6
I1
sg7
S't=1450449816849'
p3491
sa(dp3492
g6
I1
sg7
S't=1450448499797'
p3493
sa(dp3494
g6
I1
sg7
S't=1450449065512'
p3495
sa(dp3496
g6
I1
sg7
S't=1450504725895'
p3497
sa(dp3498
g6
I1
sg7
S't=1450447143261'
p3499
sa(dp3500
g6
I1
sg7
S't=1450504299974'
p3501
sa(dp3502
g6
I1
sg7
S't=1450450065302'
p3503
sa(dp3504
g6
I1
sg7
S't=1450446771645'
p3505
sa(dp3506
g6
I1
sg7
S't=1450448222779'
p3507
sa(dp3508
g6
I1
sg7
S't=1450448207505'
p3509
sa(dp3510
g6
I1
sg7
S't=1450447112665'
p3511
sa(dp3512
g6
I1
sg7
S't=1450448784575'
p3513
sa(dp3514
g6
I1
sg7
S't=1450446438031'
p3515
sa(dp3516
g6
I1
sg7
S't=1450441672901'
p3517
sa(dp3518
g6
I1
sg7
S't=1450448946884'
p3519
sa(dp3520
g6
I1
sg7
S't=1450441319237'
p3521
sa(dp3522
g6
I1
sg7
S't=1450449030889'
p3523
sa(dp3524
g6
I1
sg7
S't=1450447788936'
p3525
sa(dp3526
g6
I1
sg7
S't=1450447437701'
p3527
sa(dp3528
g6
I1
sg7
S't=1450441495954'
p3529
sa(dp3530
g6
I1
sg7
S't=1450447537939'
p3531
sa(dp3532
g6
I1
sg7
S't=1450440591953'
p3533
sa(dp3534
g6
I1
sg7
S't=1450447357111'
p3535
sa(dp3536
g6
I1
sg7
S't=1450446927011'
p3537
sa(dp3538
g6
I1
sg7
S't=1450449563880'
p3539
sa(dp3540
g6
I1
sg7
S't=1450504395937'
p3541
sa(dp3542
g6
I1
sg7
S't=1450446543661'
p3543
sa(dp3544
g6
I1
sg7
S't=1450448460003'
p3545
sa(dp3546
g6
I1
sg7
S't=1450440622017'
p3547
sa(dp3548
g6
I1
sg7
S't=1450441421898'
p3549
sa(dp3550
g6
I1
sg7
S't=1450440616675'
p3551
sa(dp3552
g6
I1
sg7
S't=1450446841836'
p3553
sa(dp3554
g6
I1
sg7
S't=1450449234891'
p3555
sa(dp3556
g6
I1
sg7
S't=1450446835640'
p3557
sa(dp3558
g6
I1
sg7
S't=1450447394662'
p3559
sa(dp3560
g6
I1
sg7
S't=1450446729642'
p3561
sa(dp3562
g6
I1
sg7
S't=1450448267808'
p3563
sa(dp3564
g6
I1
sg7
S't=1450447914028'
p3565
sa(dp3566
g6
I1
sg7
S't=1450448676894'
p3567
sa(dp3568
g6
I1
sg7
S't=1450446765639'
p3569
sa(dp3570
g6
I1
sg7
S't=1450447188622'
p3571
sa(dp3572
g6
I1
sg7
S't=1450441594339'
p3573
sa(dp3574
g6
I1
sg7
S't=1450449125513'
p3575
sa(dp3576
g6
I1
sg7
S't=1450448376919'
p3577
sa(dp3578
g6
I1
sg7
S't=1450447718810'
p3579
sa(dp3580
g6
I1
sg7
S't=1450447841091'
p3581
sa(dp3582
g6
I1
sg7
S't=1450447577960'
p3583
sa(dp3584
g6
I1
sg7
S't=1450441551886'
p3585
sa(dp3586
g6
I1
sg7
S't=1450504453186'
p3587
sa(dp3588
g6
I1
sg7
S't=1450447041637'
p3589
sa(dp3590
g6
I1
sg7
S't=1450449185520'
p3591
sa(dp3592
g6
I1
sg7
S't=1450447311626'
p3593
sa(dp3594
g6
I1
sg7
S't=1450447455630'
p3595
sa(dp3596
g6
I1
sg7
S't=1450441534230'
p3597
sa(dp3598
g6
I1
sg7
S't=1450448410845'
p3599
sa(dp3600
g6
I1
sg7
S't=1450446519665'
p3601
sa(dp3602
g6
I1
sg7
S't=1450446866908'
p3603
sa(dp3604
g6
I1
sg7
S't=1450446747640'
p3605
sa(dp3606
g6
I1
sg7
S't=1450447549781'
p3607
sa(dp3608
g6
I1
sg7
S't=1450446609690'
p3609
sa(dp3610
g6
I1
sg7
S't=1450448340918'
p3611
sa(dp3612
g6
I1
sg7
S't=1450440551135'
p3613
sa(dp3614
g6
I1
sg7
S't=1450446753654'
p3615
sa(dp3616
g6
I1
sg7
S't=1450504727906'
p3617
sa(dp3618
g6
I1
sg7
S't=1450504746919'
p3619
sa(dp3620
g6
I1
sg7
S't=1450441624416'
p3621
sa(dp3622
g6
I1
sg7
S't=1450440556038'
p3623
sa(dp3624
g6
I1
sg7
S't=1450504548407'
p3625
sa(dp3626
g6
I1
sg7
S't=1450448808875'
p3627
sa(dp3628
g6
I1
sg7
S't=1450504323953'
p3629
sa(dp3630
g6
I1
sg7
S't=1450446537670'
p3631
sa(dp3632
g6
I1
sg7
S't=1450448089074'
p3633
sa(dp3634
g6
I1
sg7
S't=1450449222544'
p3635
sa(dp3636
g6
I1
sg7
S't=1450447475934'
p3637
sa(dp3638
g6
I1
sg7
S't=1450447496868'
p3639
sa(dp3640
g6
I1
sg7
S't=1450447221633'
p3641
sa(dp3642
g6
I1
sg7
S't=1450504401942'
p3643
sa(dp3644
g6
I1
sg7
S't=1450447286914'
p3645
sa(dp3646
g6
I1
sg7
S't=1450446633658'
p3647
sa(dp3648
g6
I1
sg7
S't=1450446759660'
p3649
sa(dp3650
g6
I1
sg7
S't=1450446651660'
p3651
sa(dp3652
g6
I1
sg7
S't=1450447066643'
p3653
sa(dp3654
g6
I1
sg7
S't=1450446489733'
p3655
sa(dp3656
g6
I1
sg7
S't=1450447521344'
p3657
sa(dp3658
g6
I1
sg7
S't=1450446961826'
p3659
sa(dp3660
g6
I1
sg7
S't=1450449162889'
p3661
sa(dp3662
g6
I1
sg7
S't=1450447973068'
p3663
sa(dp3664
g6
I1
sg7
S't=1450440517940'
p3665
sa(dp3666
g6
I1
sg7
S't=1450440537978'
p3667
sa(dp3668
g6
I1
sg7
S't=1450441679506'
p3669
sa(dp3670
g6
I1
sg7
S't=1450447662079'
p3671
sa(dp3672
g6
I1
sg7
S't=1450447407478'
p3673
sa(dp3674
g6
I1
sg7
S't=1450448352910'
p3675
sa(dp3676
g6
I1
sg7
S't=1450448580003'
p3677
sa(dp3678
g6
I1
sg7
S't=1450446531671'
p3679
sa(dp3680
g6
I1
sg7
S't=1450446477625'
p3681
sa(dp3682
g6
I1
sg7
S't=1450447247946'
p3683
sa(dp3684
g6
I1
sg7
S't=1450447620598'
p3685
sa(dp3686
g6
I1
sg7
S't=1450447203635'
p3687
sa(dp3688
g6
I1
sg7
S't=1450448213071'
p3689
sa(dp3690
g6
I1
sg7
S't=1450448364913'
p3691
sa(dp3692
g6
I1
sg7
S't=1450447029647'
p3693
sa(dp3694
g6
I1
sg7
S't=1450449888839'
p3695
sa(dp3696
g6
I1
sg7
S't=1450449412729'
p3697
sa(dp3698
g6
I1
sg7
S't=1450446891142'
p3699
sa(dp3700
g6
I1
sg7
S't=1450504293921'
p3701
sa(dp3702
g6
I1
sg7
S't=1450449520407'
p3703
sa(dp3704
g6
I1
sg7
S't=1450440667068'
p3705
sa(dp3706
g6
I1
sg7
S't=1450446579658'
p3707
sa(dp3708
g6
I1
sg7
S't=1450446350789'
p3709
sa(dp3710
g6
I1
sg7
S't=1450448059041'
p3711
sa(dp3712
g6
I1
sg7
S't=1450448107911'
p3713
sa(dp3714
g6
I1
sg7
S't=1450504317950'
p3715
sa(dp3716
g6
I1
sg7
S't=1450447317731'
p3717
sa(dp3718
g6
I1
sg7
S't=1450449804842'
p3719
sasg7
S'uri_query'
p3720
sa.